ARM GAS  /var/folders/qg/q4v9m50j32g19d5z_5604vrc0000gp/T//ccUPYPJZ.s 			page 1


   1              		.cpu cortex-m7
   2              		.eabi_attribute 28, 1
   3              		.eabi_attribute 20, 1
   4              		.eabi_attribute 21, 1
   5              		.eabi_attribute 23, 3
   6              		.eabi_attribute 24, 1
   7              		.eabi_attribute 25, 1
   8              		.eabi_attribute 26, 1
   9              		.eabi_attribute 30, 2
  10              		.eabi_attribute 34, 1
  11              		.eabi_attribute 18, 4
  12              		.file	"birds-and-the-bees.cpp"
  13              		.text
  14              	.Ltext0:
  15              		.cfi_sections	.debug_frame
  16              		.section	.text._ZN5daisy6SwitchD2Ev,"axG",%progbits,_ZN5daisy6SwitchD5Ev,comdat
  17              		.align	1
  18              		.p2align 2,,3
  19              		.weak	_ZN5daisy6SwitchD2Ev
  20              		.arch armv7e-m
  21              		.syntax unified
  22              		.thumb
  23              		.thumb_func
  24              		.fpu fpv5-d16
  26              	_ZN5daisy6SwitchD2Ev:
  27              	.LVL0:
  28              	.LFB1534:
  29              		.file 1 "../libDaisy/src/hid/switch.h"
   1:../libDaisy/src/hid/switch.h **** #pragma once
   2:../libDaisy/src/hid/switch.h **** #ifndef DSY_SWITCH_H
   3:../libDaisy/src/hid/switch.h **** #define DSY_SWITCH_H
   4:../libDaisy/src/hid/switch.h **** #include "daisy_core.h"
   5:../libDaisy/src/hid/switch.h **** #include "per/gpio.h"
   6:../libDaisy/src/hid/switch.h **** 
   7:../libDaisy/src/hid/switch.h **** namespace daisy
   8:../libDaisy/src/hid/switch.h **** {
   9:../libDaisy/src/hid/switch.h **** /** 
  10:../libDaisy/src/hid/switch.h ****     Generic Class for handling momentary/latching switches \n 
  11:../libDaisy/src/hid/switch.h ****     Inspired/influenced by Mutable Instruments (pichenettes) Switch classes
  12:../libDaisy/src/hid/switch.h ****     @author Stephen Hensley
  13:../libDaisy/src/hid/switch.h ****     @date December 2019
  14:../libDaisy/src/hid/switch.h ****     @ingroup controls
  15:../libDaisy/src/hid/switch.h **** */
  16:../libDaisy/src/hid/switch.h **** class Switch
  17:../libDaisy/src/hid/switch.h **** {
  18:../libDaisy/src/hid/switch.h ****   public:
  19:../libDaisy/src/hid/switch.h ****     /** Specifies the expected behavior of the switch */
  20:../libDaisy/src/hid/switch.h ****     enum Type
  21:../libDaisy/src/hid/switch.h ****     {
  22:../libDaisy/src/hid/switch.h ****         TYPE_TOGGLE,    /**< & */
  23:../libDaisy/src/hid/switch.h ****         TYPE_MOMENTARY, /**< & */
  24:../libDaisy/src/hid/switch.h ****     };
  25:../libDaisy/src/hid/switch.h ****     /** Specifies whether the pressed is HIGH or LOW. */
  26:../libDaisy/src/hid/switch.h ****     enum Polarity
  27:../libDaisy/src/hid/switch.h ****     {
  28:../libDaisy/src/hid/switch.h ****         POLARITY_NORMAL,   /**< & */
  29:../libDaisy/src/hid/switch.h ****         POLARITY_INVERTED, /**< & */
ARM GAS  /var/folders/qg/q4v9m50j32g19d5z_5604vrc0000gp/T//ccUPYPJZ.s 			page 2


  30:../libDaisy/src/hid/switch.h ****     };
  31:../libDaisy/src/hid/switch.h **** 
  32:../libDaisy/src/hid/switch.h ****     /** Specifies whether to use built-in Pull Up/Down resistors to hold button at a given state wh
  33:../libDaisy/src/hid/switch.h ****     enum Pull
  34:../libDaisy/src/hid/switch.h ****     {
  35:../libDaisy/src/hid/switch.h ****         PULL_UP,   /**< & */
  36:../libDaisy/src/hid/switch.h ****         PULL_DOWN, /**< & */
  37:../libDaisy/src/hid/switch.h ****         PULL_NONE, /**< & */
  38:../libDaisy/src/hid/switch.h ****     };
  39:../libDaisy/src/hid/switch.h **** 
  40:../libDaisy/src/hid/switch.h ****     Switch() {}
  41:../libDaisy/src/hid/switch.h ****     ~Switch() {}
  30              		.loc 1 41 5 view -0
  31              		.cfi_startproc
  32              		@ args = 0, pretend = 0, frame = 0
  33              		@ frame_needed = 0, uses_anonymous_args = 0
  34              		@ link register save eliminated.
  35              		.loc 1 41 16 is_stmt 0 view .LVU1
  36 0000 7047     		bx	lr
  37              		.cfi_endproc
  38              	.LFE1534:
  40              		.weak	_ZN5daisy6SwitchD1Ev
  41              		.thumb_set _ZN5daisy6SwitchD1Ev,_ZN5daisy6SwitchD2Ev
  42 0002 00BF     		.section	.text._ZN5daisy9DaisySeedD2Ev,"axG",%progbits,_ZN5daisy9DaisySeedD5Ev,comdat
  43              		.align	1
  44              		.p2align 2,,3
  45              		.weak	_ZN5daisy9DaisySeedD2Ev
  46              		.syntax unified
  47              		.thumb
  48              		.thumb_func
  49              		.fpu fpv5-d16
  51              	_ZN5daisy9DaisySeedD2Ev:
  52              	.LVL1:
  53              	.LFB2013:
  54              		.file 2 "../libDaisy/src/daisy_seed.h"
   1:../libDaisy/src/daisy_seed.h **** #pragma once
   2:../libDaisy/src/daisy_seed.h **** #ifndef DSY_SEED_H
   3:../libDaisy/src/daisy_seed.h **** #define DSY_SEED_H
   4:../libDaisy/src/daisy_seed.h **** 
   5:../libDaisy/src/daisy_seed.h **** #include "daisy.h"
   6:../libDaisy/src/daisy_seed.h **** 
   7:../libDaisy/src/daisy_seed.h **** //Uncomment this out if you're still using the rev2 hardware
   8:../libDaisy/src/daisy_seed.h **** //#define SEED_REV2
   9:../libDaisy/src/daisy_seed.h **** 
  10:../libDaisy/src/daisy_seed.h **** namespace daisy
  11:../libDaisy/src/daisy_seed.h **** {
  12:../libDaisy/src/daisy_seed.h **** /**
  13:../libDaisy/src/daisy_seed.h ****    @brief This is the higher-level interface for the Daisy board. \n 
  14:../libDaisy/src/daisy_seed.h ****     All basic peripheral configuration/initialization is setup here. \n
  15:../libDaisy/src/daisy_seed.h **** 
  16:../libDaisy/src/daisy_seed.h ****    @ingroup boards
  17:../libDaisy/src/daisy_seed.h **** */
  18:../libDaisy/src/daisy_seed.h **** class DaisySeed
  19:../libDaisy/src/daisy_seed.h **** {
  20:../libDaisy/src/daisy_seed.h ****   public:
  21:../libDaisy/src/daisy_seed.h ****     DaisySeed() {}
  22:../libDaisy/src/daisy_seed.h ****     ~DaisySeed() {}
ARM GAS  /var/folders/qg/q4v9m50j32g19d5z_5604vrc0000gp/T//ccUPYPJZ.s 			page 3


  55              		.loc 2 22 5 is_stmt 1 view -0
  56              		.cfi_startproc
  57              		@ args = 0, pretend = 0, frame = 0
  58              		@ frame_needed = 0, uses_anonymous_args = 0
  59              		@ link register save eliminated.
  60              	.LBB98:
  61              	.LBI98:
  62              		.file 3 "../libDaisy/src/sys/system.h"
   1:../libDaisy/src/sys/system.h **** #ifndef DSY_SYSTEM_H
   2:../libDaisy/src/sys/system.h **** #define DSY_SYSTEM_H
   3:../libDaisy/src/sys/system.h **** 
   4:../libDaisy/src/sys/system.h **** #ifndef UNIT_TEST // for unit tests, a dummy implementation is provided below
   5:../libDaisy/src/sys/system.h **** 
   6:../libDaisy/src/sys/system.h **** #include <cstdint>
   7:../libDaisy/src/sys/system.h **** #include "per/tim.h"
   8:../libDaisy/src/sys/system.h **** 
   9:../libDaisy/src/sys/system.h **** namespace daisy
  10:../libDaisy/src/sys/system.h **** {
  11:../libDaisy/src/sys/system.h **** /** A handle for interacting with the Core System. 
  12:../libDaisy/src/sys/system.h ****  ** This includes the Clock tree, MPU, global DMA initialization,
  13:../libDaisy/src/sys/system.h ****  ** cache handling, and any other necessary global initiailzation
  14:../libDaisy/src/sys/system.h ****  **
  15:../libDaisy/src/sys/system.h ****  ** @author shensley
  16:../libDaisy/src/sys/system.h ****  ** @addtogroup system
  17:../libDaisy/src/sys/system.h ****  */
  18:../libDaisy/src/sys/system.h **** class System
  19:../libDaisy/src/sys/system.h **** {
  20:../libDaisy/src/sys/system.h ****   public:
  21:../libDaisy/src/sys/system.h ****     /** Contains settings for initializing the System */
  22:../libDaisy/src/sys/system.h ****     struct Config
  23:../libDaisy/src/sys/system.h ****     {
  24:../libDaisy/src/sys/system.h ****         /** Specifies the system clock frequency that feeds APB/AHB clocks, etc. */
  25:../libDaisy/src/sys/system.h ****         enum class SysClkFreq
  26:../libDaisy/src/sys/system.h ****         {
  27:../libDaisy/src/sys/system.h ****             FREQ_400MHZ,
  28:../libDaisy/src/sys/system.h ****             FREQ_480MHZ,
  29:../libDaisy/src/sys/system.h ****         };
  30:../libDaisy/src/sys/system.h **** 
  31:../libDaisy/src/sys/system.h ****         /** Method to call on the struct to set to defaults
  32:../libDaisy/src/sys/system.h ****          ** CPU Freq set to 400MHz
  33:../libDaisy/src/sys/system.h ****          ** Cache Enabled 
  34:../libDaisy/src/sys/system.h ****          ** */
  35:../libDaisy/src/sys/system.h ****         void Defaults()
  36:../libDaisy/src/sys/system.h ****         {
  37:../libDaisy/src/sys/system.h ****             cpu_freq   = SysClkFreq::FREQ_400MHZ;
  38:../libDaisy/src/sys/system.h ****             use_dcache = true;
  39:../libDaisy/src/sys/system.h ****             use_icache = true;
  40:../libDaisy/src/sys/system.h ****         }
  41:../libDaisy/src/sys/system.h **** 
  42:../libDaisy/src/sys/system.h ****         /** Method to call on the struct to set to boost mode:
  43:../libDaisy/src/sys/system.h ****          ** CPU Freq set to 480MHz
  44:../libDaisy/src/sys/system.h ****          ** Cache Enabled 
  45:../libDaisy/src/sys/system.h ****          ** */
  46:../libDaisy/src/sys/system.h ****         void Boost()
  47:../libDaisy/src/sys/system.h ****         {
  48:../libDaisy/src/sys/system.h ****             cpu_freq   = SysClkFreq::FREQ_480MHZ;
  49:../libDaisy/src/sys/system.h ****             use_dcache = true;
ARM GAS  /var/folders/qg/q4v9m50j32g19d5z_5604vrc0000gp/T//ccUPYPJZ.s 			page 4


  50:../libDaisy/src/sys/system.h ****             use_icache = true;
  51:../libDaisy/src/sys/system.h ****         }
  52:../libDaisy/src/sys/system.h **** 
  53:../libDaisy/src/sys/system.h ****         SysClkFreq cpu_freq;
  54:../libDaisy/src/sys/system.h ****         bool       use_dcache;
  55:../libDaisy/src/sys/system.h ****         bool       use_icache;
  56:../libDaisy/src/sys/system.h ****     };
  57:../libDaisy/src/sys/system.h **** 
  58:../libDaisy/src/sys/system.h ****     System() {}
  59:../libDaisy/src/sys/system.h ****     ~System() {}
  63              		.loc 3 59 5 view .LVU3
  64              		.loc 3 59 5 is_stmt 0 view .LVU4
  65              	.LBE98:
  66              	.LBB99:
  67              	.LBI99:
  68              		.file 4 "../libDaisy/src/hid/usb.h"
   1:../libDaisy/src/hid/usb.h **** #pragma once
   2:../libDaisy/src/hid/usb.h **** #ifndef DSY_HID_USB_H
   3:../libDaisy/src/hid/usb.h **** #define DSY_HID_USB_H
   4:../libDaisy/src/hid/usb.h **** #include <stdint.h>
   5:../libDaisy/src/hid/usb.h **** #include <stdlib.h>
   6:../libDaisy/src/hid/usb.h **** 
   7:../libDaisy/src/hid/usb.h **** namespace daisy
   8:../libDaisy/src/hid/usb.h **** /** @addtogroup externals
   9:../libDaisy/src/hid/usb.h ****     @{
  10:../libDaisy/src/hid/usb.h **** */
  11:../libDaisy/src/hid/usb.h **** 
  12:../libDaisy/src/hid/usb.h **** {
  13:../libDaisy/src/hid/usb.h **** /** 
  14:../libDaisy/src/hid/usb.h ****     @brief Interface for initializing and using the USB Peripherals on the daisy
  15:../libDaisy/src/hid/usb.h ****     @author Stephen Hensley
  16:../libDaisy/src/hid/usb.h ****     @date December 2019
  17:../libDaisy/src/hid/usb.h **** */
  18:../libDaisy/src/hid/usb.h **** class UsbHandle
  19:../libDaisy/src/hid/usb.h **** {
  20:../libDaisy/src/hid/usb.h ****   public:
  21:../libDaisy/src/hid/usb.h ****     /** Return values for USBHandle Functions */
  22:../libDaisy/src/hid/usb.h ****     enum class Result
  23:../libDaisy/src/hid/usb.h ****     {
  24:../libDaisy/src/hid/usb.h ****         OK,
  25:../libDaisy/src/hid/usb.h ****         ERR,
  26:../libDaisy/src/hid/usb.h ****     };
  27:../libDaisy/src/hid/usb.h **** 
  28:../libDaisy/src/hid/usb.h ****     /** Specified which of the two USB Peripherals to initialize. */
  29:../libDaisy/src/hid/usb.h ****     enum UsbPeriph
  30:../libDaisy/src/hid/usb.h ****     {
  31:../libDaisy/src/hid/usb.h ****         FS_INTERNAL, /**< Internal pin */
  32:../libDaisy/src/hid/usb.h ****         FS_EXTERNAL, /**< FS External D+ pin is Pin 38 (GPIO32). FS External D- pin is Pin 37 (GPIO
  33:../libDaisy/src/hid/usb.h ****         FS_BOTH,     /**< Both */
  34:../libDaisy/src/hid/usb.h ****     };
  35:../libDaisy/src/hid/usb.h **** 
  36:../libDaisy/src/hid/usb.h **** 
  37:../libDaisy/src/hid/usb.h ****     /** Function called upon reception of a buffer */
  38:../libDaisy/src/hid/usb.h ****     typedef void (*ReceiveCallback)(uint8_t* buff, uint32_t* len);
  39:../libDaisy/src/hid/usb.h **** 
  40:../libDaisy/src/hid/usb.h ****     UsbHandle() {}
  41:../libDaisy/src/hid/usb.h **** 
ARM GAS  /var/folders/qg/q4v9m50j32g19d5z_5604vrc0000gp/T//ccUPYPJZ.s 			page 5


  42:../libDaisy/src/hid/usb.h ****     ~UsbHandle() {}
  69              		.loc 4 42 5 is_stmt 1 view .LVU5
  70              		.loc 4 42 5 is_stmt 0 view .LVU6
  71              	.LBE99:
  72              	.LBB100:
  73              	.LBI100:
  74              		.file 5 "../libDaisy/src/per/adc.h"
   1:../libDaisy/src/per/adc.h **** #pragma once
   2:../libDaisy/src/per/adc.h **** #ifndef DSY_ADC_H
   3:../libDaisy/src/per/adc.h **** #define DSY_ADC_H /**< Macro */
   4:../libDaisy/src/per/adc.h **** #include <stdint.h>
   5:../libDaisy/src/per/adc.h **** #include <stdlib.h>
   6:../libDaisy/src/per/adc.h **** #include "daisy_core.h"
   7:../libDaisy/src/per/adc.h **** #include "per/gpio.h"
   8:../libDaisy/src/per/adc.h **** 
   9:../libDaisy/src/per/adc.h **** #define DSY_ADC_MAX_CHANNELS 16 /**< Maximum number of ADC channels */
  10:../libDaisy/src/per/adc.h **** 
  11:../libDaisy/src/per/adc.h **** namespace daisy
  12:../libDaisy/src/per/adc.h **** {
  13:../libDaisy/src/per/adc.h **** /** @addtogroup analog_digital_conversion
  14:../libDaisy/src/per/adc.h ****     @{
  15:../libDaisy/src/per/adc.h **** */
  16:../libDaisy/src/per/adc.h **** 
  17:../libDaisy/src/per/adc.h **** /* While there may not be many configuration options here,
  18:../libDaisy/src/per/adc.h **** using a struct like this allows us to add more configuration
  19:../libDaisy/src/per/adc.h **** later without breaking existing functionality.
  20:../libDaisy/src/per/adc.h **** */
  21:../libDaisy/src/per/adc.h **** 
  22:../libDaisy/src/per/adc.h **** /** Configuration Structure for a given channel */
  23:../libDaisy/src/per/adc.h **** struct AdcChannelConfig
  24:../libDaisy/src/per/adc.h **** {
  25:../libDaisy/src/per/adc.h ****     /** Which pin to use for multiplexing */
  26:../libDaisy/src/per/adc.h ****     enum MuxPin
  27:../libDaisy/src/per/adc.h ****     {
  28:../libDaisy/src/per/adc.h ****         MUX_SEL_0,    /**< & */
  29:../libDaisy/src/per/adc.h ****         MUX_SEL_1,    /**< & */
  30:../libDaisy/src/per/adc.h ****         MUX_SEL_2,    /**< & */
  31:../libDaisy/src/per/adc.h ****         MUX_SEL_LAST, /**< & */
  32:../libDaisy/src/per/adc.h ****     };
  33:../libDaisy/src/per/adc.h **** 
  34:../libDaisy/src/per/adc.h ****     /** Initializes a single ADC pin as an ADC. 
  35:../libDaisy/src/per/adc.h ****     \param pin Pin to init.
  36:../libDaisy/src/per/adc.h ****      */
  37:../libDaisy/src/per/adc.h ****     void InitSingle(dsy_gpio_pin pin);
  38:../libDaisy/src/per/adc.h **** 
  39:../libDaisy/src/per/adc.h ****     /** 
  40:../libDaisy/src/per/adc.h ****     Initializes a single ADC pin as a Multiplexed ADC.
  41:../libDaisy/src/per/adc.h ****     Requires a CD405X Multiplexer connected to the pin.
  42:../libDaisy/src/per/adc.h ****     You only need to supply the mux pins that are required,
  43:../libDaisy/src/per/adc.h ****     e.g. a 4052 mux would only require mux_0 and mux_1.
  44:../libDaisy/src/per/adc.h ****     Internal Callbacks handle the pin addressing.
  45:../libDaisy/src/per/adc.h ****     \param mux_channels must be 1-8
  46:../libDaisy/src/per/adc.h ****     \param mux_0 First mux pin
  47:../libDaisy/src/per/adc.h ****     \param mux_1 Second mux pin
  48:../libDaisy/src/per/adc.h ****     \param mux_2 Third mux pin
  49:../libDaisy/src/per/adc.h ****     \param adc_pin &
  50:../libDaisy/src/per/adc.h ****     */
ARM GAS  /var/folders/qg/q4v9m50j32g19d5z_5604vrc0000gp/T//ccUPYPJZ.s 			page 6


  51:../libDaisy/src/per/adc.h ****     void InitMux(dsy_gpio_pin adc_pin,
  52:../libDaisy/src/per/adc.h ****                  size_t       mux_channels,
  53:../libDaisy/src/per/adc.h ****                  dsy_gpio_pin mux_0,
  54:../libDaisy/src/per/adc.h ****                  dsy_gpio_pin mux_1 = {DSY_GPIOX, 0},
  55:../libDaisy/src/per/adc.h ****                  dsy_gpio_pin mux_2 = {DSY_GPIOX, 0});
  56:../libDaisy/src/per/adc.h **** 
  57:../libDaisy/src/per/adc.h ****     dsy_gpio pin_;                   /**< & */
  58:../libDaisy/src/per/adc.h ****     dsy_gpio mux_pin_[MUX_SEL_LAST]; /**< & */
  59:../libDaisy/src/per/adc.h ****     uint8_t  mux_channels_;          /**< & */
  60:../libDaisy/src/per/adc.h **** };
  61:../libDaisy/src/per/adc.h **** 
  62:../libDaisy/src/per/adc.h **** /**
  63:../libDaisy/src/per/adc.h ****    Handler for analog to digital conversion
  64:../libDaisy/src/per/adc.h **** */
  65:../libDaisy/src/per/adc.h **** class AdcHandle
  66:../libDaisy/src/per/adc.h **** {
  67:../libDaisy/src/per/adc.h ****   public:
  68:../libDaisy/src/per/adc.h ****     /** Supported oversampling amounts */
  69:../libDaisy/src/per/adc.h ****     enum OverSampling
  70:../libDaisy/src/per/adc.h ****     {
  71:../libDaisy/src/per/adc.h ****         OVS_NONE, /**< & */
  72:../libDaisy/src/per/adc.h ****         OVS_4,    /**< & */
  73:../libDaisy/src/per/adc.h ****         OVS_8,    /**< & */
  74:../libDaisy/src/per/adc.h ****         OVS_16,   /**< & */
  75:../libDaisy/src/per/adc.h ****         OVS_32,   /**< & */
  76:../libDaisy/src/per/adc.h ****         OVS_64,   /**< & */
  77:../libDaisy/src/per/adc.h ****         OVS_128,  /**< & */
  78:../libDaisy/src/per/adc.h ****         OVS_256,  /**< & */
  79:../libDaisy/src/per/adc.h ****         OVS_512,  /**< & */
  80:../libDaisy/src/per/adc.h ****         OVS_1024, /**< & */
  81:../libDaisy/src/per/adc.h ****         OVS_LAST, /**< & */
  82:../libDaisy/src/per/adc.h ****     };
  83:../libDaisy/src/per/adc.h **** 
  84:../libDaisy/src/per/adc.h ****     AdcHandle() {}
  85:../libDaisy/src/per/adc.h ****     ~AdcHandle() {}
  75              		.loc 5 85 5 is_stmt 1 view .LVU7
  76              		.loc 5 85 5 is_stmt 0 view .LVU8
  77              	.LBE100:
  78              	.LBB101:
  79              	.LBI101:
  80              		.file 6 "../libDaisy/src/hid/audio.h"
   1:../libDaisy/src/hid/audio.h **** #ifndef DSY_AUDIO_H
   2:../libDaisy/src/hid/audio.h **** #define DSY_AUDIO_H /**< & */
   3:../libDaisy/src/hid/audio.h **** 
   4:../libDaisy/src/hid/audio.h **** #include "per/sai.h"
   5:../libDaisy/src/hid/audio.h **** 
   6:../libDaisy/src/hid/audio.h **** namespace daisy
   7:../libDaisy/src/hid/audio.h **** {
   8:../libDaisy/src/hid/audio.h **** class AudioHandle
   9:../libDaisy/src/hid/audio.h **** {
  10:../libDaisy/src/hid/audio.h ****   public:
  11:../libDaisy/src/hid/audio.h ****     /** Manually configurable details about the Audio Engine */
  12:../libDaisy/src/hid/audio.h ****     /** TODO: Figure out how to get samplerate in here. */
  13:../libDaisy/src/hid/audio.h ****     struct Config
  14:../libDaisy/src/hid/audio.h ****     {
  15:../libDaisy/src/hid/audio.h ****         size_t                        blocksize;
  16:../libDaisy/src/hid/audio.h ****         SaiHandle::Config::SampleRate samplerate;
ARM GAS  /var/folders/qg/q4v9m50j32g19d5z_5604vrc0000gp/T//ccUPYPJZ.s 			page 7


  17:../libDaisy/src/hid/audio.h ****         float                         postgain;
  18:../libDaisy/src/hid/audio.h ****     };
  19:../libDaisy/src/hid/audio.h **** 
  20:../libDaisy/src/hid/audio.h ****     enum class Result
  21:../libDaisy/src/hid/audio.h ****     {
  22:../libDaisy/src/hid/audio.h ****         OK,
  23:../libDaisy/src/hid/audio.h ****         ERR,
  24:../libDaisy/src/hid/audio.h ****     };
  25:../libDaisy/src/hid/audio.h **** 
  26:../libDaisy/src/hid/audio.h ****     /** Non-Interleaving input buffer
  27:../libDaisy/src/hid/audio.h ****      * Buffer arranged by float[chn][sample] 
  28:../libDaisy/src/hid/audio.h ****      * const so that the user can't modify the input
  29:../libDaisy/src/hid/audio.h ****     */
  30:../libDaisy/src/hid/audio.h ****     typedef const float* const* InputBuffer;
  31:../libDaisy/src/hid/audio.h **** 
  32:../libDaisy/src/hid/audio.h ****     /** Non-Interleaving output buffer
  33:../libDaisy/src/hid/audio.h ****      * Arranged by float[chn][sample] 
  34:../libDaisy/src/hid/audio.h ****     */
  35:../libDaisy/src/hid/audio.h ****     typedef float** OutputBuffer;
  36:../libDaisy/src/hid/audio.h **** 
  37:../libDaisy/src/hid/audio.h ****     /** Type for a Non-Interleaving audio callback 
  38:../libDaisy/src/hid/audio.h ****    * Non-Interleaving audio callbacks in daisy will be of this type
  39:../libDaisy/src/hid/audio.h ****   */
  40:../libDaisy/src/hid/audio.h ****     typedef void (*AudioCallback)(InputBuffer  in,
  41:../libDaisy/src/hid/audio.h ****                                   OutputBuffer out,
  42:../libDaisy/src/hid/audio.h ****                                   size_t       size);
  43:../libDaisy/src/hid/audio.h **** 
  44:../libDaisy/src/hid/audio.h ****     /** Interleaving Input buffer
  45:../libDaisy/src/hid/audio.h ****      ** audio is prepared as { L0, R0, L1, R1, . . . LN, RN }]
  46:../libDaisy/src/hid/audio.h ****      ** this is const, as the user shouldn't modify it
  47:../libDaisy/src/hid/audio.h ****     */
  48:../libDaisy/src/hid/audio.h ****     typedef const float* InterleavingInputBuffer;
  49:../libDaisy/src/hid/audio.h **** 
  50:../libDaisy/src/hid/audio.h ****     /** Interleaving Output buffer 
  51:../libDaisy/src/hid/audio.h ****      ** audio is prepared as { L0, R0, L1, R1, . . . LN, RN }
  52:../libDaisy/src/hid/audio.h ****     */
  53:../libDaisy/src/hid/audio.h ****     typedef float* InterleavingOutputBuffer;
  54:../libDaisy/src/hid/audio.h **** 
  55:../libDaisy/src/hid/audio.h ****     /** Interleaving Audio Callback 
  56:../libDaisy/src/hid/audio.h ****    * Interleaving audio callbacks in daisy must be of this type
  57:../libDaisy/src/hid/audio.h ****   */
  58:../libDaisy/src/hid/audio.h ****     typedef void (*InterleavingAudioCallback)(InterleavingInputBuffer  in,
  59:../libDaisy/src/hid/audio.h ****                                               InterleavingOutputBuffer out,
  60:../libDaisy/src/hid/audio.h ****                                               size_t                   size);
  61:../libDaisy/src/hid/audio.h **** 
  62:../libDaisy/src/hid/audio.h ****     AudioHandle() : pimpl_(nullptr) {}
  63:../libDaisy/src/hid/audio.h ****     ~AudioHandle() {}
  81              		.loc 6 63 5 is_stmt 1 view .LVU9
  82              		.loc 6 63 5 is_stmt 0 view .LVU10
  83              	.LBE101:
  84              		.loc 2 22 19 view .LVU11
  85 0000 7047     		bx	lr
  86              		.cfi_endproc
  87              	.LFE2013:
  89              		.weak	_ZN5daisy9DaisySeedD1Ev
  90              		.thumb_set _ZN5daisy9DaisySeedD1Ev,_ZN5daisy9DaisySeedD2Ev
  91 0002 00BF     		.section	.text._ZN7daisysp4AdsrD2Ev,"axG",%progbits,_ZN7daisysp4AdsrD5Ev,comdat
ARM GAS  /var/folders/qg/q4v9m50j32g19d5z_5604vrc0000gp/T//ccUPYPJZ.s 			page 8


  92              		.align	1
  93              		.p2align 2,,3
  94              		.weak	_ZN7daisysp4AdsrD2Ev
  95              		.syntax unified
  96              		.thumb
  97              		.thumb_func
  98              		.fpu fpv5-d16
 100              	_ZN7daisysp4AdsrD2Ev:
 101              	.LVL2:
 102              	.LFB2036:
 103              		.file 7 "../DaisySP/Source/Control/adsr.h"
   1:../DaisySP/Source/Control/adsr.h **** #pragma once
   2:../DaisySP/Source/Control/adsr.h **** #ifndef DSY_ADSR_H
   3:../DaisySP/Source/Control/adsr.h **** #define DSY_ADSR_H
   4:../DaisySP/Source/Control/adsr.h **** 
   5:../DaisySP/Source/Control/adsr.h **** #include <stdint.h>
   6:../DaisySP/Source/Control/adsr.h **** #ifdef __cplusplus
   7:../DaisySP/Source/Control/adsr.h **** 
   8:../DaisySP/Source/Control/adsr.h **** namespace daisysp
   9:../DaisySP/Source/Control/adsr.h **** {
  10:../DaisySP/Source/Control/adsr.h **** /** Distinct stages that the phase of the envelope can be located in.
  11:../DaisySP/Source/Control/adsr.h **** - IDLE   = located at phase location 0, and not currently running
  12:../DaisySP/Source/Control/adsr.h **** - ATTACK  = First segment of envelope where phase moves from 0 to 1
  13:../DaisySP/Source/Control/adsr.h **** - DECAY   = Second segment of envelope where phase moves from 1 to SUSTAIN value
  14:../DaisySP/Source/Control/adsr.h **** - RELEASE =     Fourth segment of envelop where phase moves from SUSTAIN to 0
  15:../DaisySP/Source/Control/adsr.h **** */
  16:../DaisySP/Source/Control/adsr.h **** enum
  17:../DaisySP/Source/Control/adsr.h **** {
  18:../DaisySP/Source/Control/adsr.h ****     ADSR_SEG_IDLE    = 0,
  19:../DaisySP/Source/Control/adsr.h ****     ADSR_SEG_ATTACK  = 1,
  20:../DaisySP/Source/Control/adsr.h ****     ADSR_SEG_DECAY   = 2,
  21:../DaisySP/Source/Control/adsr.h ****     ADSR_SEG_RELEASE = 4
  22:../DaisySP/Source/Control/adsr.h **** };
  23:../DaisySP/Source/Control/adsr.h **** 
  24:../DaisySP/Source/Control/adsr.h **** 
  25:../DaisySP/Source/Control/adsr.h **** /** adsr envelope module
  26:../DaisySP/Source/Control/adsr.h **** 
  27:../DaisySP/Source/Control/adsr.h **** Original author(s) : Paul Batchelor
  28:../DaisySP/Source/Control/adsr.h **** 
  29:../DaisySP/Source/Control/adsr.h **** Ported from Soundpipe by Ben Sergentanis, May 2020
  30:../DaisySP/Source/Control/adsr.h ****  
  31:../DaisySP/Source/Control/adsr.h **** Remake by Steffan DIedrichsen, May 2021
  32:../DaisySP/Source/Control/adsr.h **** */
  33:../DaisySP/Source/Control/adsr.h **** class Adsr
  34:../DaisySP/Source/Control/adsr.h **** {
  35:../DaisySP/Source/Control/adsr.h ****   public:
  36:../DaisySP/Source/Control/adsr.h ****     Adsr() {}
  37:../DaisySP/Source/Control/adsr.h ****     ~Adsr() {}
 104              		.loc 7 37 5 is_stmt 1 view -0
 105              		.cfi_startproc
 106              		@ args = 0, pretend = 0, frame = 0
 107              		@ frame_needed = 0, uses_anonymous_args = 0
 108              		@ link register save eliminated.
 109              		.loc 7 37 14 is_stmt 0 view .LVU13
 110 0000 7047     		bx	lr
 111              		.cfi_endproc
 112              	.LFE2036:
ARM GAS  /var/folders/qg/q4v9m50j32g19d5z_5604vrc0000gp/T//ccUPYPJZ.s 			page 9


 114              		.weak	_ZN7daisysp4AdsrD1Ev
 115              		.thumb_set _ZN7daisysp4AdsrD1Ev,_ZN7daisysp4AdsrD2Ev
 116 0002 00BF     		.section	.text._ZN7daisysp10MoogLadderD2Ev,"axG",%progbits,_ZN7daisysp10MoogLadderD5Ev,comdat
 117              		.align	1
 118              		.p2align 2,,3
 119              		.weak	_ZN7daisysp10MoogLadderD2Ev
 120              		.syntax unified
 121              		.thumb
 122              		.thumb_func
 123              		.fpu fpv5-d16
 125              	_ZN7daisysp10MoogLadderD2Ev:
 126              	.LVL3:
 127              	.LFB3991:
 128              		.file 8 "../DaisySP/Source/Filters/moogladder.h"
   1:../DaisySP/Source/Filters/moogladder.h **** #pragma once
   2:../DaisySP/Source/Filters/moogladder.h **** #ifndef DSY_MOOGLADDER_H
   3:../DaisySP/Source/Filters/moogladder.h **** #define DSY_MOOGLADDER_H
   4:../DaisySP/Source/Filters/moogladder.h **** 
   5:../DaisySP/Source/Filters/moogladder.h **** #include <stdint.h>
   6:../DaisySP/Source/Filters/moogladder.h **** #ifdef __cplusplus
   7:../DaisySP/Source/Filters/moogladder.h **** 
   8:../DaisySP/Source/Filters/moogladder.h **** namespace daisysp
   9:../DaisySP/Source/Filters/moogladder.h **** {
  10:../DaisySP/Source/Filters/moogladder.h **** /** Moog ladder filter module
  11:../DaisySP/Source/Filters/moogladder.h **** 
  12:../DaisySP/Source/Filters/moogladder.h **** Ported from soundpipe
  13:../DaisySP/Source/Filters/moogladder.h **** 
  14:../DaisySP/Source/Filters/moogladder.h **** Original author(s) : Victor Lazzarini, John ffitch (fast tanh), Bob Moog
  15:../DaisySP/Source/Filters/moogladder.h **** 
  16:../DaisySP/Source/Filters/moogladder.h **** */
  17:../DaisySP/Source/Filters/moogladder.h **** class MoogLadder
  18:../DaisySP/Source/Filters/moogladder.h **** {
  19:../DaisySP/Source/Filters/moogladder.h ****   public:
  20:../DaisySP/Source/Filters/moogladder.h ****     MoogLadder() {}
  21:../DaisySP/Source/Filters/moogladder.h ****     ~MoogLadder() {}
 129              		.loc 8 21 5 is_stmt 1 view -0
 130              		.cfi_startproc
 131              		@ args = 0, pretend = 0, frame = 0
 132              		@ frame_needed = 0, uses_anonymous_args = 0
 133              		@ link register save eliminated.
 134              		.loc 8 21 20 is_stmt 0 view .LVU15
 135 0000 7047     		bx	lr
 136              		.cfi_endproc
 137              	.LFE3991:
 139              		.weak	_ZN7daisysp10MoogLadderD1Ev
 140              		.thumb_set _ZN7daisysp10MoogLadderD1Ev,_ZN7daisysp10MoogLadderD2Ev
 141 0002 00BF     		.section	.text._ZN7daisysp4PortD2Ev,"axG",%progbits,_ZN7daisysp4PortD5Ev,comdat
 142              		.align	1
 143              		.p2align 2,,3
 144              		.weak	_ZN7daisysp4PortD2Ev
 145              		.syntax unified
 146              		.thumb
 147              		.thumb_func
 148              		.fpu fpv5-d16
 150              	_ZN7daisysp4PortD2Ev:
 151              	.LVL4:
 152              	.LFB4220:
ARM GAS  /var/folders/qg/q4v9m50j32g19d5z_5604vrc0000gp/T//ccUPYPJZ.s 			page 10


 153              		.file 9 "../DaisySP/Source/Utility/port.h"
   1:../DaisySP/Source/Utility/port.h **** 
   2:../DaisySP/Source/Utility/port.h **** #pragma once
   3:../DaisySP/Source/Utility/port.h **** #ifndef DSY_PORT_H
   4:../DaisySP/Source/Utility/port.h **** #define DSY_PORT_H
   5:../DaisySP/Source/Utility/port.h **** #ifdef __cplusplus
   6:../DaisySP/Source/Utility/port.h **** 
   7:../DaisySP/Source/Utility/port.h **** namespace daisysp
   8:../DaisySP/Source/Utility/port.h **** {
   9:../DaisySP/Source/Utility/port.h **** /** Applies portamento to an input signal. 
  10:../DaisySP/Source/Utility/port.h **** 
  11:../DaisySP/Source/Utility/port.h **** At each new step value, the input is low-pass filtered to 
  12:../DaisySP/Source/Utility/port.h **** move towards that value at a rate determined by ihtim. ihtim is the half-time of the 
  13:../DaisySP/Source/Utility/port.h **** function (in seconds), during which the curve will traverse half the distance towards the new value
  14:../DaisySP/Source/Utility/port.h **** then half as much again, etc., theoretically never reaching its asymptote.
  15:../DaisySP/Source/Utility/port.h **** 
  16:../DaisySP/Source/Utility/port.h **** This code has been ported from Soundpipe to DaisySP by Paul Batchelor. 
  17:../DaisySP/Source/Utility/port.h **** 
  18:../DaisySP/Source/Utility/port.h **** The Soundpipe module was extracted from the Csound opcode "portk".
  19:../DaisySP/Source/Utility/port.h **** 
  20:../DaisySP/Source/Utility/port.h **** Original Author(s): Robbin Whittle, John ffitch
  21:../DaisySP/Source/Utility/port.h **** 
  22:../DaisySP/Source/Utility/port.h **** Year: 1995, 1998
  23:../DaisySP/Source/Utility/port.h **** 
  24:../DaisySP/Source/Utility/port.h **** Location: Opcodes/biquad.c
  25:../DaisySP/Source/Utility/port.h **** */
  26:../DaisySP/Source/Utility/port.h **** class Port
  27:../DaisySP/Source/Utility/port.h **** {
  28:../DaisySP/Source/Utility/port.h ****   public:
  29:../DaisySP/Source/Utility/port.h ****     Port() {}
  30:../DaisySP/Source/Utility/port.h ****     ~Port() {}
 154              		.loc 9 30 5 is_stmt 1 view -0
 155              		.cfi_startproc
 156              		@ args = 0, pretend = 0, frame = 0
 157              		@ frame_needed = 0, uses_anonymous_args = 0
 158              		@ link register save eliminated.
 159              		.loc 9 30 14 is_stmt 0 view .LVU17
 160 0000 7047     		bx	lr
 161              		.cfi_endproc
 162              	.LFE4220:
 164              		.weak	_ZN7daisysp4PortD1Ev
 165              		.thumb_set _ZN7daisysp4PortD1Ev,_ZN7daisysp4PortD2Ev
 166 0002 00BF     		.section	.text.__tcf_0,"ax",%progbits
 167              		.align	1
 168              		.p2align 2,,3
 169              		.syntax unified
 170              		.thumb
 171              		.thumb_func
 172              		.fpu fpv5-d16
 174              	__tcf_0:
 175              	.LFB4802:
 176              		.file 10 "birds-and-the-bees.cpp"
   1:birds-and-the-bees.cpp **** #include "daisy_seed.h"
   2:birds-and-the-bees.cpp **** #include "daisysp.h"
   3:birds-and-the-bees.cpp **** 
   4:birds-and-the-bees.cpp **** using namespace daisysp;
   5:birds-and-the-bees.cpp **** using namespace daisy;
ARM GAS  /var/folders/qg/q4v9m50j32g19d5z_5604vrc0000gp/T//ccUPYPJZ.s 			page 11


   6:birds-and-the-bees.cpp **** 
   7:birds-and-the-bees.cpp **** #define NUM_OF_OSCILLATORS 8
   8:birds-and-the-bees.cpp **** #define AUDIO_BLOCK_SIZE 48
   9:birds-and-the-bees.cpp **** float notes[] = {220.0f, 440.0f, 220.0f, 329.63f, 261.63f, 293.66f, 329.63f, 349.23f};
  10:birds-and-the-bees.cpp **** int notesIndex = 0;
  11:birds-and-the-bees.cpp **** 
  12:birds-and-the-bees.cpp **** int PIN_MUX_SEL_0 = 17;
  13:birds-and-the-bees.cpp **** int PIN_MUX_SEL_1 = 18;
  14:birds-and-the-bees.cpp **** int PIN_MUX_SEL_2 = 19;
  15:birds-and-the-bees.cpp **** 
  16:birds-and-the-bees.cpp **** int PIN_ADC_POT_MUX1 = 15;
  17:birds-and-the-bees.cpp **** int PIN_ADC_POT_MUX2 = 16;
  18:birds-and-the-bees.cpp **** AnalogControl knob_[24];
 177              		.loc 10 18 15 is_stmt 1 view -0
 178              		.cfi_startproc
 179              		@ args = 0, pretend = 0, frame = 0
 180              		@ frame_needed = 0, uses_anonymous_args = 0
 181              		@ link register save eliminated.
 182              		.loc 10 18 15 is_stmt 0 view .LVU19
 183 0000 7047     		bx	lr
 184              		.cfi_endproc
 185              	.LFE4802:
 187 0002 00BF     		.section	.text._ZL13AudioCallbackPKfPfj,"ax",%progbits
 188              		.align	1
 189              		.p2align 2,,3
 190              		.syntax unified
 191              		.thumb
 192              		.thumb_func
 193              		.fpu fpv5-d16
 195              	_ZL13AudioCallbackPKfPfj:
 196              	.LVL5:
 197              	.LFB4242:
  19:birds-and-the-bees.cpp **** 
  20:birds-and-the-bees.cpp **** static DaisySeed hw;
  21:birds-and-the-bees.cpp **** static VariableShapeOscillator osc[NUM_OF_OSCILLATORS];
  22:birds-and-the-bees.cpp **** // static Oscillator osc[NUM_OF_OSCILLATORS];
  23:birds-and-the-bees.cpp **** static MoogLadder filterLeft;
  24:birds-and-the-bees.cpp **** static MoogLadder filterRight;
  25:birds-and-the-bees.cpp **** static Adsr envelope;
  26:birds-and-the-bees.cpp **** static Port port;
  27:birds-and-the-bees.cpp **** 
  28:birds-and-the-bees.cpp **** float outputVolume = 0.75f;
  29:birds-and-the-bees.cpp **** float portamento = 0.0f;
  30:birds-and-the-bees.cpp **** float swarmPreset = 0.0f;       // what is this...
  31:birds-and-the-bees.cpp **** float swarmParcialRange = 0.0f; // what is that...
  32:birds-and-the-bees.cpp **** float cutoffHz = 100.0f;
  33:birds-and-the-bees.cpp **** float resonance = 0.0f;
  34:birds-and-the-bees.cpp **** float filterSwarmSpread = 0.5; // what is dis...
  35:birds-and-the-bees.cpp **** float enveloptToCutoff = 0.0f;
  36:birds-and-the-bees.cpp **** float overdrive = 0.0f;
  37:birds-and-the-bees.cpp **** float tune = 0.0f; // in cents?
  38:birds-and-the-bees.cpp **** float attackMs = 0.0f;
  39:birds-and-the-bees.cpp **** float decayMs = 0.0f;
  40:birds-and-the-bees.cpp **** float sustain = 0.0f;
  41:birds-and-the-bees.cpp **** float releaseMs = 0.0f;
  42:birds-and-the-bees.cpp **** int octave = 2;
  43:birds-and-the-bees.cpp **** float stereoSpread = 0.5f;
ARM GAS  /var/folders/qg/q4v9m50j32g19d5z_5604vrc0000gp/T//ccUPYPJZ.s 			page 12


  44:birds-and-the-bees.cpp **** 
  45:birds-and-the-bees.cpp **** float pitchRibbon = 0.0f;
  46:birds-and-the-bees.cpp **** float cutoffRibbon = 0.0f;
  47:birds-and-the-bees.cpp **** 
  48:birds-and-the-bees.cpp **** float knob = 0.5f;
  49:birds-and-the-bees.cpp **** Switch button1;
  50:birds-and-the-bees.cpp **** 
  51:birds-and-the-bees.cpp **** void SetupOsc(float samplerate) {
  52:birds-and-the-bees.cpp ****   for (int i = 0; i < NUM_OF_OSCILLATORS; i++) {
  53:birds-and-the-bees.cpp ****     // osc[i].Init(samplerate);
  54:birds-and-the-bees.cpp ****     // osc[i].SetWaveform(osc[i].WAVE_SIN);
  55:birds-and-the-bees.cpp ****     // osc[i].SetFreq(250);
  56:birds-and-the-bees.cpp ****     // osc[i].SetAmp(0.5);
  57:birds-and-the-bees.cpp **** 
  58:birds-and-the-bees.cpp ****     osc[i].Init(samplerate);
  59:birds-and-the-bees.cpp ****     osc[i].SetWaveshape(0.0f);
  60:birds-and-the-bees.cpp ****     osc[i].SetPW(0.5f);
  61:birds-and-the-bees.cpp ****     osc[i].SetSync(true);
  62:birds-and-the-bees.cpp ****   }
  63:birds-and-the-bees.cpp **** }
  64:birds-and-the-bees.cpp **** 
  65:birds-and-the-bees.cpp **** static void AudioCallback(AudioHandle::InterleavingInputBuffer in,
  66:birds-and-the-bees.cpp ****                           AudioHandle::InterleavingOutputBuffer out,
  67:birds-and-the-bees.cpp ****                           size_t size) {
 198              		.loc 10 67 40 is_stmt 1 view -0
 199              		.cfi_startproc
 200              		@ args = 0, pretend = 0, frame = 8
 201              		@ frame_needed = 0, uses_anonymous_args = 0
  68:birds-and-the-bees.cpp **** 
  69:birds-and-the-bees.cpp ****   
  70:birds-and-the-bees.cpp ****   for (size_t i = 0; i < size; i += 2) {
 202              		.loc 10 70 3 view .LVU21
 203              	.LBB103:
 204              		.loc 10 70 24 view .LVU22
 205 0000 002A     		cmp	r2, #0
 206 0002 00F09F80 		beq	.L19
 207 0006 013A     		subs	r2, r2, #1
 208              	.LVL6:
 209              		.loc 10 70 24 is_stmt 0 view .LVU23
 210              	.LBE103:
  67:birds-and-the-bees.cpp **** 
 211              		.loc 10 67 40 view .LVU24
 212 0008 2DE9F04F 		push	{r4, r5, r6, r7, r8, r9, r10, fp, lr}
 213              		.cfi_def_cfa_offset 36
 214              		.cfi_offset 4, -36
 215              		.cfi_offset 5, -32
 216              		.cfi_offset 6, -28
 217              		.cfi_offset 7, -24
 218              		.cfi_offset 8, -20
 219              		.cfi_offset 9, -16
 220              		.cfi_offset 10, -12
 221              		.cfi_offset 11, -8
 222              		.cfi_offset 14, -4
 223 000c 5308     		lsrs	r3, r2, #1
 224              	.LBB118:
 225              		.loc 10 70 24 view .LVU25
 226 000e 0026     		movs	r6, #0
ARM GAS  /var/folders/qg/q4v9m50j32g19d5z_5604vrc0000gp/T//ccUPYPJZ.s 			page 13


 227 0010 4D4F     		ldr	r7, .L24
 228 0012 8846     		mov	r8, r1
 229 0014 4D4C     		ldr	r4, .L24+4
 230 0016 DFF85CB1 		ldr	fp, .L24+44
 231              	.LBE118:
  67:birds-and-the-bees.cpp **** 
 232              		.loc 10 67 40 view .LVU26
 233 001a 2DED068B 		vpush.64	{d8, d9, d10}
 234              		.cfi_def_cfa_offset 60
 235              		.cfi_offset 80, -60
 236              		.cfi_offset 81, -56
 237              		.cfi_offset 82, -52
 238              		.cfi_offset 83, -48
 239              		.cfi_offset 84, -44
 240              		.cfi_offset 85, -40
 241 001e 83B0     		sub	sp, sp, #12
 242              		.cfi_def_cfa_offset 72
 243 0020 0193     		str	r3, [sp, #4]
 244              	.LVL7:
 245              	.L16:
 246              	.LBB119:
 247              	.LBB104:
  71:birds-and-the-bees.cpp ****     float sigL = 0;
 248              		.loc 10 71 5 is_stmt 1 view .LVU27
  72:birds-and-the-bees.cpp ****     float sigR = 0;
 249              		.loc 10 72 5 view .LVU28
  73:birds-and-the-bees.cpp ****     // knob = 0;
  74:birds-and-the-bees.cpp ****     knob = hw.adc.GetFloat(0);
 250              		.loc 10 74 5 view .LVU29
 251              		.loc 10 74 27 is_stmt 0 view .LVU30
 252 0022 0021     		movs	r1, #0
 253 0024 4A48     		ldr	r0, .L24+8
 254 0026 FFF7FEFF 		bl	_ZNK5daisy9AdcHandle8GetFloatEh
 255              	.LVL8:
  75:birds-and-the-bees.cpp ****     button1.Debounce();
 256              		.loc 10 75 21 view .LVU31
 257 002a 4A48     		ldr	r0, .L24+12
  74:birds-and-the-bees.cpp ****     button1.Debounce();
 258              		.loc 10 74 10 view .LVU32
 259 002c 87ED000A 		vstr.32	s0, [r7]
 260              		.loc 10 75 5 is_stmt 1 view .LVU33
 261              		.loc 10 75 21 is_stmt 0 view .LVU34
 262 0030 FFF7FEFF 		bl	_ZN5daisy6Switch8DebounceEv
 263              	.LVL9:
  76:birds-and-the-bees.cpp ****     bool gateState = button1.Pressed();
 264              		.loc 10 76 5 is_stmt 1 view .LVU35
 265              	.LBB105:
 266              	.LBI105:
  42:../libDaisy/src/hid/switch.h **** 
  43:../libDaisy/src/hid/switch.h ****     /** 
  44:../libDaisy/src/hid/switch.h ****     Initializes the switch object with a given port/pin combo.
  45:../libDaisy/src/hid/switch.h ****     \param pin port/pin object to tell the switch which hardware pin to use.
  46:../libDaisy/src/hid/switch.h ****     \param update_rate the rate at which the Debounce() function will be called. (used for timing).
  47:../libDaisy/src/hid/switch.h ****     \param t switch type -- Default: TYPE_MOMENTARY
  48:../libDaisy/src/hid/switch.h ****     \param pol switch polarity -- Default: POLARITY_INVERTED
  49:../libDaisy/src/hid/switch.h ****     \param pu switch pull up/down -- Default: PULL_UP
  50:../libDaisy/src/hid/switch.h ****     */
ARM GAS  /var/folders/qg/q4v9m50j32g19d5z_5604vrc0000gp/T//ccUPYPJZ.s 			page 14


  51:../libDaisy/src/hid/switch.h ****     void
  52:../libDaisy/src/hid/switch.h ****     Init(dsy_gpio_pin pin, float update_rate, Type t, Polarity pol, Pull pu);
  53:../libDaisy/src/hid/switch.h **** 
  54:../libDaisy/src/hid/switch.h ****     /**
  55:../libDaisy/src/hid/switch.h ****        Simplified Init.
  56:../libDaisy/src/hid/switch.h ****        \param pin port/pin object to tell the switch which hardware pin to use.
  57:../libDaisy/src/hid/switch.h ****        \param update_rate the rate at which the Debounce() function will be called. (used for timin
  58:../libDaisy/src/hid/switch.h ****     */
  59:../libDaisy/src/hid/switch.h ****     void Init(dsy_gpio_pin pin, float update_rate);
  60:../libDaisy/src/hid/switch.h **** 
  61:../libDaisy/src/hid/switch.h ****     /** 
  62:../libDaisy/src/hid/switch.h ****     Called at update_rate to debounce and handle timing for the switch.
  63:../libDaisy/src/hid/switch.h ****     In order for events not to be missed, its important that the Edge/Pressed checks
  64:../libDaisy/src/hid/switch.h ****     be made at the same rate as the debounce function is being called.
  65:../libDaisy/src/hid/switch.h ****     */
  66:../libDaisy/src/hid/switch.h ****     void Debounce();
  67:../libDaisy/src/hid/switch.h **** 
  68:../libDaisy/src/hid/switch.h ****     /** \return true if a button was just pressed. */
  69:../libDaisy/src/hid/switch.h ****     inline bool RisingEdge() const { return state_ == 0x7f; }
  70:../libDaisy/src/hid/switch.h **** 
  71:../libDaisy/src/hid/switch.h ****     /** \return true if the button was just released */
  72:../libDaisy/src/hid/switch.h ****     inline bool FallingEdge() const { return state_ == 0x80; }
  73:../libDaisy/src/hid/switch.h **** 
  74:../libDaisy/src/hid/switch.h ****     /** \return true if the button is held down (or if the toggle is on) */
  75:../libDaisy/src/hid/switch.h ****     inline bool Pressed() const { return state_ == 0xff; }
 267              		.loc 1 75 17 view .LVU36
 268              	.LBB106:
 269              		.loc 1 75 35 view .LVU37
 270              		.loc 1 75 42 is_stmt 0 view .LVU38
 271 0034 474B     		ldr	r3, .L24+12
 272 0036 5B79     		ldrb	r3, [r3, #5]	@ zero_extendqisi2
 273              		.loc 1 75 52 view .LVU39
 274 0038 A3F1FF09 		sub	r9, r3, #255
 275              	.LBE106:
 276              	.LBE105:
  77:birds-and-the-bees.cpp ****     if(button1.RisingEdge()) {
 277              		.loc 10 77 5 view .LVU40
 278 003c 7F2B     		cmp	r3, #127
 279              	.LBB108:
 280              	.LBB107:
 281              		.loc 1 75 52 view .LVU41
 282 003e B9FA89F9 		clz	r9, r9
 283 0042 4FEA5919 		lsr	r9, r9, #5
 284              	.LVL10:
 285              		.loc 1 75 52 view .LVU42
 286              	.LBE107:
 287              	.LBE108:
 288              		.loc 10 77 5 is_stmt 1 view .LVU43
 289              		.loc 10 77 5 is_stmt 0 view .LVU44
 290              	.LBE104:
 291              	.LBE119:
  69:../libDaisy/src/hid/switch.h **** 
 292              		.loc 1 69 38 is_stmt 1 view .LVU45
 293              	.LBB120:
 294              	.LBB114:
 295              		.loc 10 77 5 is_stmt 0 view .LVU46
 296 0046 6CD0     		beq	.L10
ARM GAS  /var/folders/qg/q4v9m50j32g19d5z_5604vrc0000gp/T//ccUPYPJZ.s 			page 15


  78:birds-and-the-bees.cpp ****       notesIndex = (notesIndex + 1) % 8;
  79:birds-and-the-bees.cpp ****     }
  80:birds-and-the-bees.cpp ****     float note = notes[notesIndex];
 297              		.loc 10 80 34 view .LVU47
 298 0048 434B     		ldr	r3, .L24+16
 299 004a 1B68     		ldr	r3, [r3]
 300              	.L11:
 301              		.loc 10 80 5 is_stmt 1 view .LVU48
 302              		.loc 10 80 11 is_stmt 0 view .LVU49
 303 004c 434A     		ldr	r2, .L24+20
 304              	.LBB109:
  81:birds-and-the-bees.cpp ****     note = port.Process(note);
  82:birds-and-the-bees.cpp ****     float waveshape = knob;
  83:birds-and-the-bees.cpp ****   
  84:birds-and-the-bees.cpp ****     for (int i = 0; i < NUM_OF_OSCILLATORS; i++) {
 305              		.loc 10 84 14 view .LVU50
 306 004e 4FF0000A 		mov	r10, #0
 307              	.LBE109:
  72:birds-and-the-bees.cpp ****     // knob = 0;
 308              		.loc 10 72 11 view .LVU51
 309 0052 9FED439A 		vldr.32	s18, .L24+24
  80:birds-and-the-bees.cpp ****     note = port.Process(note);
 310              		.loc 10 80 11 view .LVU52
 311 0056 02EB8303 		add	r3, r2, r3, lsl #2
 312              	.LVL11:
  81:birds-and-the-bees.cpp ****     note = port.Process(note);
 313              		.loc 10 81 5 is_stmt 1 view .LVU53
  81:birds-and-the-bees.cpp ****     note = port.Process(note);
 314              		.loc 10 81 24 is_stmt 0 view .LVU54
 315 005a 4248     		ldr	r0, .L24+28
  71:birds-and-the-bees.cpp ****     float sigR = 0;
 316              		.loc 10 71 11 view .LVU55
 317 005c F0EE498A 		vmov.f32	s17, s18
 318 0060 414D     		ldr	r5, .L24+32
  81:birds-and-the-bees.cpp ****     float waveshape = knob;
 319              		.loc 10 81 24 view .LVU56
 320 0062 93ED000A 		vldr.32	s0, [r3]
 321 0066 FFF7FEFF 		bl	_ZN7daisysp4Port7ProcessEf
 322              	.LVL12:
  82:birds-and-the-bees.cpp ****   
 323              		.loc 10 82 11 view .LVU57
 324 006a D7ED00AA 		vldr.32	s21, [r7]
  81:birds-and-the-bees.cpp ****     float waveshape = knob;
 325              		.loc 10 81 24 view .LVU58
 326 006e B0EE40AA 		vmov.f32	s20, s0
 327              	.LVL13:
  82:birds-and-the-bees.cpp ****   
 328              		.loc 10 82 5 is_stmt 1 view .LVU59
 329              		.loc 10 84 5 view .LVU60
 330              	.LBB113:
 331              		.loc 10 84 23 view .LVU61
 332 0072 09E0     		b	.L14
 333              	.LVL14:
 334              	.L23:
 335              		.loc 10 84 5 is_stmt 0 view .LVU62
 336 0074 0AF1010A 		add	r10, r10, #1
 337              	.LVL15:
ARM GAS  /var/folders/qg/q4v9m50j32g19d5z_5604vrc0000gp/T//ccUPYPJZ.s 			page 16


 338              	.LBB110:
  85:birds-and-the-bees.cpp ****       float newFreq = note + (0.2f * i);
  86:birds-and-the-bees.cpp ****       osc[i].SetFreq(newFreq);
  87:birds-and-the-bees.cpp ****       osc[i].SetSyncFreq(newFreq);
  88:birds-and-the-bees.cpp ****       osc[i].SetWaveshape(waveshape);
  89:birds-and-the-bees.cpp ****       // 0% means 0.125 * sig for both sides
  90:birds-and-the-bees.cpp ****       // 50% meant 0.1875 sig primary,  0.0625 sig secondary | 0.125f
  91:birds-and-the-bees.cpp ****       // 100% means 0.25 * sig for primary side, 0% for secondary
  92:birds-and-the-bees.cpp **** 
  93:birds-and-the-bees.cpp ****       float primaryChannelRatio = (stereoSpread * 0.125f + 0.125f);
  94:birds-and-the-bees.cpp ****       float secondaryChannelRatio = (0.125f - (stereoSpread * 0.125f));
  95:birds-and-the-bees.cpp ****       float oscOutput = osc[i].Process();
  96:birds-and-the-bees.cpp ****       if (i % 2 == 0) {
  97:birds-and-the-bees.cpp ****         sigL += primaryChannelRatio * oscOutput;
 339              		.loc 10 97 14 view .LVU63
 340 0078 E9EE808A 		vfma.f32	s17, s19, s0
 341              	.LVL16:
  98:birds-and-the-bees.cpp ****         sigR += secondaryChannelRatio * oscOutput;
 342              		.loc 10 98 9 is_stmt 1 view .LVU64
 343              		.loc 10 98 14 is_stmt 0 view .LVU65
 344 007c A8EE009A 		vfma.f32	s18, s16, s0
 345              	.LVL17:
 346              		.loc 10 98 14 view .LVU66
 347              	.LBE110:
  84:birds-and-the-bees.cpp ****       float newFreq = note + (0.2f * i);
 348              		.loc 10 84 5 is_stmt 1 view .LVU67
  84:birds-and-the-bees.cpp ****       float newFreq = note + (0.2f * i);
 349              		.loc 10 84 23 view .LVU68
 350 0080 2C35     		adds	r5, r5, #44
 351 0082 BAF1080F 		cmp	r10, #8
 352 0086 34D0     		beq	.L22
 353              	.LVL18:
 354              	.L14:
 355              	.LBB111:
  85:birds-and-the-bees.cpp ****       float newFreq = note + (0.2f * i);
 356              		.loc 10 85 7 view .LVU69
  85:birds-and-the-bees.cpp ****       float newFreq = note + (0.2f * i);
 357              		.loc 10 85 36 is_stmt 0 view .LVU70
 358 0088 07EE90AA 		vmov	s15, r10	@ int
  85:birds-and-the-bees.cpp ****       float newFreq = note + (0.2f * i);
 359              		.loc 10 85 13 view .LVU71
 360 008c B0EE4A0A 		vmov.f32	s0, s20
  86:birds-and-the-bees.cpp ****       osc[i].SetSyncFreq(newFreq);
 361              		.loc 10 86 21 view .LVU72
 362 0090 2846     		mov	r0, r5
  85:birds-and-the-bees.cpp ****       osc[i].SetFreq(newFreq);
 363              		.loc 10 85 36 view .LVU73
 364 0092 B8EEE77A 		vcvt.f32.s32	s14, s15
  85:birds-and-the-bees.cpp ****       osc[i].SetFreq(newFreq);
 365              		.loc 10 85 13 view .LVU74
 366 0096 DFED357A 		vldr.32	s15, .L24+36
 367 009a A7EE270A 		vfma.f32	s0, s14, s15
 368              	.LVL19:
  86:birds-and-the-bees.cpp ****       osc[i].SetSyncFreq(newFreq);
 369              		.loc 10 86 7 is_stmt 1 view .LVU75
  86:birds-and-the-bees.cpp ****       osc[i].SetSyncFreq(newFreq);
 370              		.loc 10 86 21 is_stmt 0 view .LVU76
ARM GAS  /var/folders/qg/q4v9m50j32g19d5z_5604vrc0000gp/T//ccUPYPJZ.s 			page 17


 371 009e 8DED000A 		vstr.32	s0, [sp]	@ int
 372 00a2 FFF7FEFF 		bl	_ZN7daisysp23VariableShapeOscillator7SetFreqEf
 373              	.LVL20:
  87:birds-and-the-bees.cpp ****       osc[i].SetWaveshape(waveshape);
 374              		.loc 10 87 7 is_stmt 1 view .LVU77
  87:birds-and-the-bees.cpp ****       osc[i].SetWaveshape(waveshape);
 375              		.loc 10 87 25 is_stmt 0 view .LVU78
 376 00a6 9DED000A 		vldr.32	s0, [sp]	@ int
 377 00aa 2846     		mov	r0, r5
 378 00ac FFF7FEFF 		bl	_ZN7daisysp23VariableShapeOscillator11SetSyncFreqEf
 379              	.LVL21:
  88:birds-and-the-bees.cpp ****       // 0% means 0.125 * sig for both sides
 380              		.loc 10 88 7 is_stmt 1 view .LVU79
  88:birds-and-the-bees.cpp ****       // 0% means 0.125 * sig for both sides
 381              		.loc 10 88 26 is_stmt 0 view .LVU80
 382 00b0 B0EE6A0A 		vmov.f32	s0, s21
 383 00b4 2846     		mov	r0, r5
 384 00b6 FFF7FEFF 		bl	_ZN7daisysp23VariableShapeOscillator12SetWaveshapeEf
 385              	.LVL22:
  93:birds-and-the-bees.cpp ****       float secondaryChannelRatio = (0.125f - (stereoSpread * 0.125f));
 386              		.loc 10 93 7 is_stmt 1 view .LVU81
  93:birds-and-the-bees.cpp ****       float secondaryChannelRatio = (0.125f - (stereoSpread * 0.125f));
 387              		.loc 10 93 13 is_stmt 0 view .LVU82
 388 00ba F4EE007A 		vmov.f32	s15, #1.25e-1
  93:birds-and-the-bees.cpp ****       float secondaryChannelRatio = (0.125f - (stereoSpread * 0.125f));
 389              		.loc 10 93 49 view .LVU83
 390 00be 94ED007A 		vldr.32	s14, [r4]
  95:birds-and-the-bees.cpp ****       if (i % 2 == 0) {
 391              		.loc 10 95 39 view .LVU84
 392 00c2 2846     		mov	r0, r5
  93:birds-and-the-bees.cpp ****       float secondaryChannelRatio = (0.125f - (stereoSpread * 0.125f));
 393              		.loc 10 93 13 view .LVU85
 394 00c4 F0EE679A 		vmov.f32	s19, s15
 395 00c8 E7EE279A 		vfma.f32	s19, s14, s15
 396              	.LVL23:
  94:birds-and-the-bees.cpp ****       float oscOutput = osc[i].Process();
 397              		.loc 10 94 7 is_stmt 1 view .LVU86
  94:birds-and-the-bees.cpp ****       float oscOutput = osc[i].Process();
 398              		.loc 10 94 13 is_stmt 0 view .LVU87
 399 00cc E7EE677A 		vfms.f32	s15, s14, s15
 400 00d0 B0EE678A 		vmov.f32	s16, s15
 401              	.LVL24:
  95:birds-and-the-bees.cpp ****       if (i % 2 == 0) {
 402              		.loc 10 95 7 is_stmt 1 view .LVU88
  95:birds-and-the-bees.cpp ****       if (i % 2 == 0) {
 403              		.loc 10 95 39 is_stmt 0 view .LVU89
 404 00d4 FFF7FEFF 		bl	_ZN7daisysp23VariableShapeOscillator7ProcessEv
 405              	.LVL25:
  99:birds-and-the-bees.cpp ****       } else {
 100:birds-and-the-bees.cpp ****         sigL += secondaryChannelRatio * oscOutput;
 406              		.loc 10 100 9 is_stmt 1 view .LVU90
  96:birds-and-the-bees.cpp ****         sigL += primaryChannelRatio * oscOutput;
 407              		.loc 10 96 7 view .LVU91
  97:birds-and-the-bees.cpp ****         sigR += secondaryChannelRatio * oscOutput;
 408              		.loc 10 97 9 view .LVU92
  96:birds-and-the-bees.cpp ****         sigL += primaryChannelRatio * oscOutput;
 409              		.loc 10 96 7 is_stmt 0 view .LVU93
ARM GAS  /var/folders/qg/q4v9m50j32g19d5z_5604vrc0000gp/T//ccUPYPJZ.s 			page 18


 410 00d8 1AF0010F 		tst	r10, #1
 411 00dc CAD0     		beq	.L23
 412              	.LBE111:
  84:birds-and-the-bees.cpp ****       float newFreq = note + (0.2f * i);
 413              		.loc 10 84 5 view .LVU94
 414 00de 0AF1010A 		add	r10, r10, #1
 415              	.LVL26:
 416              	.LBB112:
 417              		.loc 10 100 14 view .LVU95
 418 00e2 E8EE008A 		vfma.f32	s17, s16, s0
 419              	.LVL27:
 101:birds-and-the-bees.cpp ****         sigR += primaryChannelRatio * oscOutput;
 420              		.loc 10 101 9 is_stmt 1 view .LVU96
 421              		.loc 10 101 14 is_stmt 0 view .LVU97
 422 00e6 A9EE809A 		vfma.f32	s18, s19, s0
 423              	.LVL28:
 424              		.loc 10 101 14 view .LVU98
 425              	.LBE112:
  84:birds-and-the-bees.cpp ****       float newFreq = note + (0.2f * i);
 426              		.loc 10 84 5 is_stmt 1 view .LVU99
  84:birds-and-the-bees.cpp ****       float newFreq = note + (0.2f * i);
 427              		.loc 10 84 23 view .LVU100
 428 00ea 2C35     		adds	r5, r5, #44
 429 00ec BAF1080F 		cmp	r10, #8
 430 00f0 CAD1     		bne	.L14
 431              	.LVL29:
 432              	.L22:
  84:birds-and-the-bees.cpp ****       float newFreq = note + (0.2f * i);
 433              		.loc 10 84 23 is_stmt 0 view .LVU101
 434              	.LBE113:
 102:birds-and-the-bees.cpp ****       }
 103:birds-and-the-bees.cpp ****     }
 104:birds-and-the-bees.cpp ****     float envAmp = envelope.Process(gateState);
 435              		.loc 10 104 5 is_stmt 1 discriminator 2 view .LVU102
 436              		.loc 10 104 36 is_stmt 0 discriminator 2 view .LVU103
 437 00f2 4946     		mov	r1, r9
 438 00f4 1E48     		ldr	r0, .L24+40
 439 00f6 FFF7FEFF 		bl	_ZN7daisysp4Adsr7ProcessEb
 440              	.LVL30:
 105:birds-and-the-bees.cpp ****     sigL *= envAmp * outputVolume;
 441              		.loc 10 105 5 is_stmt 1 discriminator 2 view .LVU104
 442              		.loc 10 105 20 is_stmt 0 discriminator 2 view .LVU105
 443 00fa DBED007A 		vldr.32	s15, [fp]
 444              	.LBE114:
  70:birds-and-the-bees.cpp ****     float sigL = 0;
 445              		.loc 10 70 24 discriminator 2 view .LVU106
 446 00fe 019A     		ldr	r2, [sp, #4]
 447 0100 08F10808 		add	r8, r8, #8
 448              	.LBB115:
 449              		.loc 10 105 20 discriminator 2 view .LVU107
 450 0104 20EE270A 		vmul.f32	s0, s0, s15
 451              	.LVL31:
 106:birds-and-the-bees.cpp ****     sigR *= envAmp * outputVolume;
 452              		.loc 10 106 5 is_stmt 1 discriminator 2 view .LVU108
 107:birds-and-the-bees.cpp ****     // left out
 108:birds-and-the-bees.cpp ****     out[i] = sigL;
 453              		.loc 10 108 5 discriminator 2 view .LVU109
ARM GAS  /var/folders/qg/q4v9m50j32g19d5z_5604vrc0000gp/T//ccUPYPJZ.s 			page 19


 454              	.LBE115:
  70:birds-and-the-bees.cpp ****     float sigL = 0;
 455              		.loc 10 70 24 is_stmt 0 discriminator 2 view .LVU110
 456 0108 731C     		adds	r3, r6, #1
 457 010a B242     		cmp	r2, r6
 458              	.LBB116:
 105:birds-and-the-bees.cpp ****     sigR *= envAmp * outputVolume;
 459              		.loc 10 105 10 discriminator 2 view .LVU111
 460 010c 60EE288A 		vmul.f32	s17, s0, s17
 461              	.LVL32:
 106:birds-and-the-bees.cpp ****     // left out
 462              		.loc 10 106 10 discriminator 2 view .LVU112
 463 0110 20EE090A 		vmul.f32	s0, s0, s18
 464              	.LVL33:
 465              		.loc 10 108 12 discriminator 2 view .LVU113
 466 0114 48ED028A 		vstr.32	s17, [r8, #-8]
 109:birds-and-the-bees.cpp **** 
 110:birds-and-the-bees.cpp ****     // right out
 111:birds-and-the-bees.cpp ****     out[i + 1] = sigR;
 467              		.loc 10 111 5 is_stmt 1 discriminator 2 view .LVU114
 468              		.loc 10 111 16 is_stmt 0 discriminator 2 view .LVU115
 469 0118 08ED010A 		vstr.32	s0, [r8, #-4]
 470              	.LBE116:
  70:birds-and-the-bees.cpp ****     float sigL = 0;
 471              		.loc 10 70 3 is_stmt 1 discriminator 2 view .LVU116
 472              	.LVL34:
  70:birds-and-the-bees.cpp ****     float sigL = 0;
 473              		.loc 10 70 24 discriminator 2 view .LVU117
 474 011c 0DD0     		beq	.L8
 475 011e 1E46     		mov	r6, r3
 476              	.LVL35:
  70:birds-and-the-bees.cpp ****     float sigL = 0;
 477              		.loc 10 70 24 is_stmt 0 discriminator 2 view .LVU118
 478 0120 7FE7     		b	.L16
 479              	.LVL36:
 480              	.L10:
 481              	.LBB117:
  78:birds-and-the-bees.cpp ****     }
 482              		.loc 10 78 7 is_stmt 1 view .LVU119
  78:birds-and-the-bees.cpp ****     }
 483              		.loc 10 78 32 is_stmt 0 view .LVU120
 484 0122 0D49     		ldr	r1, .L24+16
 485 0124 0B68     		ldr	r3, [r1]
 486 0126 0133     		adds	r3, r3, #1
  78:birds-and-the-bees.cpp ****     }
 487              		.loc 10 78 37 view .LVU121
 488 0128 5A42     		rsbs	r2, r3, #0
 489 012a 03F00703 		and	r3, r3, #7
 490 012e 02F00702 		and	r2, r2, #7
 491 0132 58BF     		it	pl
 492 0134 5342     		rsbpl	r3, r2, #0
  78:birds-and-the-bees.cpp ****     }
 493              		.loc 10 78 18 view .LVU122
 494 0136 0B60     		str	r3, [r1]
 495 0138 88E7     		b	.L11
 496              	.LVL37:
 497              	.L8:
ARM GAS  /var/folders/qg/q4v9m50j32g19d5z_5604vrc0000gp/T//ccUPYPJZ.s 			page 20


  78:birds-and-the-bees.cpp ****     }
 498              		.loc 10 78 18 view .LVU123
 499              	.LBE117:
 500              	.LBE120:
 112:birds-and-the-bees.cpp ****   }
 113:birds-and-the-bees.cpp **** }
 501              		.loc 10 113 1 view .LVU124
 502 013a 03B0     		add	sp, sp, #12
 503              		.cfi_def_cfa_offset 60
 504              		@ sp needed
 505 013c BDEC068B 		vldm	sp!, {d8-d10}
 506              		.cfi_restore 84
 507              		.cfi_restore 85
 508              		.cfi_restore 82
 509              		.cfi_restore 83
 510              		.cfi_restore 80
 511              		.cfi_restore 81
 512              		.cfi_def_cfa_offset 36
 513              	.LVL38:
 514              		.loc 10 113 1 view .LVU125
 515 0140 BDE8F08F 		pop	{r4, r5, r6, r7, r8, r9, r10, fp, pc}
 516              	.LVL39:
 517              	.L19:
 518              		.cfi_def_cfa_offset 0
 519              		.cfi_restore 4
 520              		.cfi_restore 5
 521              		.cfi_restore 6
 522              		.cfi_restore 7
 523              		.cfi_restore 8
 524              		.cfi_restore 9
 525              		.cfi_restore 10
 526              		.cfi_restore 11
 527              		.cfi_restore 14
 528              		.loc 10 113 1 view .LVU126
 529 0144 7047     		bx	lr
 530              	.L25:
 531 0146 00BF     		.align	2
 532              	.L24:
 533 0148 00000000 		.word	.LANCHOR1
 534 014c 00000000 		.word	.LANCHOR7
 535 0150 18000000 		.word	.LANCHOR0+24
 536 0154 00000000 		.word	.LANCHOR2
 537 0158 00000000 		.word	.LANCHOR3
 538 015c 00000000 		.word	.LANCHOR4
 539 0160 00000000 		.word	0
 540 0164 00000000 		.word	.LANCHOR5
 541 0168 00000000 		.word	.LANCHOR6
 542 016c CDCC4C3E 		.word	1045220557
 543 0170 00000000 		.word	.LANCHOR8
 544 0174 00000000 		.word	.LANCHOR9
 545              		.cfi_endproc
 546              	.LFE4242:
 548              		.section	.text.__tcf_1,"ax",%progbits
 549              		.align	1
 550              		.p2align 2,,3
 551              		.syntax unified
 552              		.thumb
ARM GAS  /var/folders/qg/q4v9m50j32g19d5z_5604vrc0000gp/T//ccUPYPJZ.s 			page 21


 553              		.thumb_func
 554              		.fpu fpv5-d16
 556              	__tcf_1:
 557              	.LFB4806:
 558              		.cfi_startproc
 559              		@ args = 0, pretend = 0, frame = 0
 560              		@ frame_needed = 0, uses_anonymous_args = 0
 561              		@ link register save eliminated.
 562 0000 7047     		bx	lr
 563              		.cfi_endproc
 564              	.LFE4806:
 566 0002 00BF     		.section	.text._Z8SetupOscf,"ax",%progbits
 567              		.align	1
 568              		.p2align 2,,3
 569              		.global	_Z8SetupOscf
 570              		.syntax unified
 571              		.thumb
 572              		.thumb_func
 573              		.fpu fpv5-d16
 575              	_Z8SetupOscf:
 576              	.LVL40:
 577              	.LFB4241:
  51:birds-and-the-bees.cpp ****   for (int i = 0; i < NUM_OF_OSCILLATORS; i++) {
 578              		.loc 10 51 33 is_stmt 1 view -0
 579              		.cfi_startproc
 580              		@ args = 0, pretend = 0, frame = 0
 581              		@ frame_needed = 0, uses_anonymous_args = 0
  52:birds-and-the-bees.cpp ****     // osc[i].Init(samplerate);
 582              		.loc 10 52 3 view .LVU128
 583              	.LBB121:
  52:birds-and-the-bees.cpp ****     // osc[i].Init(samplerate);
 584              		.loc 10 52 21 view .LVU129
 585              	.LBE121:
  51:birds-and-the-bees.cpp ****   for (int i = 0; i < NUM_OF_OSCILLATORS; i++) {
 586              		.loc 10 51 33 is_stmt 0 view .LVU130
 587 0000 38B5     		push	{r3, r4, r5, lr}
 588              		.cfi_def_cfa_offset 16
 589              		.cfi_offset 3, -16
 590              		.cfi_offset 4, -12
 591              		.cfi_offset 5, -8
 592              		.cfi_offset 14, -4
 593 0002 104C     		ldr	r4, .L31
 594 0004 2DED028B 		vpush.64	{d8}
 595              		.cfi_def_cfa_offset 24
 596              		.cfi_offset 80, -24
 597              		.cfi_offset 81, -20
  51:birds-and-the-bees.cpp ****   for (int i = 0; i < NUM_OF_OSCILLATORS; i++) {
 598              		.loc 10 51 33 view .LVU131
 599 0008 B0EE408A 		vmov.f32	s16, s0
 600 000c 04F5B075 		add	r5, r4, #352
 601              	.LVL41:
 602              	.L28:
 603              	.LBB122:
  58:birds-and-the-bees.cpp ****     osc[i].SetWaveshape(0.0f);
 604              		.loc 10 58 5 is_stmt 1 discriminator 2 view .LVU132
  58:birds-and-the-bees.cpp ****     osc[i].SetWaveshape(0.0f);
 605              		.loc 10 58 16 is_stmt 0 discriminator 2 view .LVU133
ARM GAS  /var/folders/qg/q4v9m50j32g19d5z_5604vrc0000gp/T//ccUPYPJZ.s 			page 22


 606 0010 2046     		mov	r0, r4
 607 0012 B0EE480A 		vmov.f32	s0, s16
 608 0016 FFF7FEFF 		bl	_ZN7daisysp23VariableShapeOscillator4InitEf
 609              	.LVL42:
  59:birds-and-the-bees.cpp ****     osc[i].SetPW(0.5f);
 610              		.loc 10 59 5 is_stmt 1 discriminator 2 view .LVU134
  59:birds-and-the-bees.cpp ****     osc[i].SetPW(0.5f);
 611              		.loc 10 59 24 is_stmt 0 discriminator 2 view .LVU135
 612 001a 2046     		mov	r0, r4
 613 001c 9FED0A0A 		vldr.32	s0, .L31+4
 614 0020 FFF7FEFF 		bl	_ZN7daisysp23VariableShapeOscillator12SetWaveshapeEf
 615              	.LVL43:
  60:birds-and-the-bees.cpp ****     osc[i].SetSync(true);
 616              		.loc 10 60 5 is_stmt 1 discriminator 2 view .LVU136
  60:birds-and-the-bees.cpp ****     osc[i].SetSync(true);
 617              		.loc 10 60 17 is_stmt 0 discriminator 2 view .LVU137
 618 0024 2046     		mov	r0, r4
 619 0026 B6EE000A 		vmov.f32	s0, #5.0e-1
 620 002a FFF7FEFF 		bl	_ZN7daisysp23VariableShapeOscillator5SetPWEf
 621              	.LVL44:
  61:birds-and-the-bees.cpp ****   }
 622              		.loc 10 61 5 is_stmt 1 discriminator 2 view .LVU138
  61:birds-and-the-bees.cpp ****   }
 623              		.loc 10 61 19 is_stmt 0 discriminator 2 view .LVU139
 624 002e 2046     		mov	r0, r4
  52:birds-and-the-bees.cpp ****     // osc[i].Init(samplerate);
 625              		.loc 10 52 21 discriminator 2 view .LVU140
 626 0030 2C34     		adds	r4, r4, #44
  61:birds-and-the-bees.cpp ****   }
 627              		.loc 10 61 19 discriminator 2 view .LVU141
 628 0032 0121     		movs	r1, #1
 629 0034 FFF7FEFF 		bl	_ZN7daisysp23VariableShapeOscillator7SetSyncEb
 630              	.LVL45:
  52:birds-and-the-bees.cpp ****     // osc[i].Init(samplerate);
 631              		.loc 10 52 3 is_stmt 1 discriminator 2 view .LVU142
  52:birds-and-the-bees.cpp ****     // osc[i].Init(samplerate);
 632              		.loc 10 52 21 discriminator 2 view .LVU143
 633 0038 AC42     		cmp	r4, r5
 634 003a E9D1     		bne	.L28
 635              	.LBE122:
  63:birds-and-the-bees.cpp **** 
 636              		.loc 10 63 1 is_stmt 0 view .LVU144
 637 003c BDEC028B 		vldm	sp!, {d8}
 638              		.cfi_restore 80
 639              		.cfi_restore 81
 640              		.cfi_def_cfa_offset 16
 641              	.LVL46:
  63:birds-and-the-bees.cpp **** 
 642              		.loc 10 63 1 view .LVU145
 643 0040 38BD     		pop	{r3, r4, r5, pc}
 644              	.L32:
 645 0042 00BF     		.align	2
 646              	.L31:
 647 0044 00000000 		.word	.LANCHOR6
 648 0048 00000000 		.word	0
 649              		.cfi_endproc
 650              	.LFE4241:
ARM GAS  /var/folders/qg/q4v9m50j32g19d5z_5604vrc0000gp/T//ccUPYPJZ.s 			page 23


 652              		.section	.text._Z11setupMuxAdcv,"ax",%progbits
 653              		.align	1
 654              		.p2align 2,,3
 655              		.global	_Z11setupMuxAdcv
 656              		.syntax unified
 657              		.thumb
 658              		.thumb_func
 659              		.fpu fpv5-d16
 661              	_Z11setupMuxAdcv:
 662              	.LFB4243:
 114:birds-and-the-bees.cpp **** 
 115:birds-and-the-bees.cpp **** void setupMuxAdc(void) {
 663              		.loc 10 115 24 is_stmt 1 view -0
 664              		.cfi_startproc
 665              		@ args = 0, pretend = 0, frame = 80
 666              		@ frame_needed = 0, uses_anonymous_args = 0
 116:birds-and-the-bees.cpp ****   // let's try to mux
 117:birds-and-the-bees.cpp ****   AdcChannelConfig adc_cfg[2];
 667              		.loc 10 117 3 view .LVU147
 118:birds-and-the-bees.cpp ****   //   adc_cfg[0].InitSingle(hw.GetPin(15));
 119:birds-and-the-bees.cpp ****   adc_cfg[0].InitMux(hw.GetPin(PIN_ADC_POT_MUX1),
 668              		.loc 10 119 3 view .LVU148
 669              		.loc 10 119 21 is_stmt 0 view .LVU149
 670 0000 414B     		ldr	r3, .L37
 115:birds-and-the-bees.cpp ****   // let's try to mux
 671              		.loc 10 115 24 view .LVU150
 672 0002 70B5     		push	{r4, r5, r6, lr}
 673              		.cfi_def_cfa_offset 16
 674              		.cfi_offset 4, -16
 675              		.cfi_offset 5, -12
 676              		.cfi_offset 6, -8
 677              		.cfi_offset 14, -4
 678              		.loc 10 119 21 view .LVU151
 679 0004 1878     		ldrb	r0, [r3]	@ zero_extendqisi2
 115:birds-and-the-bees.cpp ****   // let's try to mux
 680              		.loc 10 115 24 view .LVU152
 681 0006 96B0     		sub	sp, sp, #88
 682              		.cfi_def_cfa_offset 104
 683              		.loc 10 119 21 view .LVU153
 684 0008 404E     		ldr	r6, .L37+4
 685 000a FFF7FEFF 		bl	_ZN5daisy9DaisySeed6GetPinEh
 686              	.LVL47:
 687 000e 0346     		mov	r3, r0	@ movhi
 688 0010 3F4D     		ldr	r5, .L37+8
 689 0012 3078     		ldrb	r0, [r6]	@ zero_extendqisi2
 690 0014 3F4C     		ldr	r4, .L37+12
 691 0016 ADF81430 		strh	r3, [sp, #20]	@ movhi
 692 001a FFF7FEFF 		bl	_ZN5daisy9DaisySeed6GetPinEh
 693              	.LVL48:
 694 001e 0346     		mov	r3, r0	@ movhi
 695 0020 2878     		ldrb	r0, [r5]	@ zero_extendqisi2
 696 0022 ADF81830 		strh	r3, [sp, #24]	@ movhi
 697 0026 FFF7FEFF 		bl	_ZN5daisy9DaisySeed6GetPinEh
 698              	.LVL49:
 699 002a ADF81C00 		strh	r0, [sp, #28]	@ movhi
 700 002e 2078     		ldrb	r0, [r4]	@ zero_extendqisi2
 701 0030 FFF7FEFF 		bl	_ZN5daisy9DaisySeed6GetPinEh
ARM GAS  /var/folders/qg/q4v9m50j32g19d5z_5604vrc0000gp/T//ccUPYPJZ.s 			page 24


 702              	.LVL50:
 703 0034 BDF81C30 		ldrh	r3, [sp, #28]
 704 0038 0822     		movs	r2, #8
 705 003a 0599     		ldr	r1, [sp, #20]
 706 003c ADF80400 		strh	r0, [sp, #4]	@ movhi
 707 0040 0DA8     		add	r0, sp, #52
 708 0042 ADF80030 		strh	r3, [sp]	@ movhi
 709 0046 069B     		ldr	r3, [sp, #24]
 710 0048 FFF7FEFF 		bl	_ZN5daisy16AdcChannelConfig7InitMuxE12dsy_gpio_pinjS1_S1_S1_
 711              	.LVL51:
 120:birds-and-the-bees.cpp ****                      8,
 121:birds-and-the-bees.cpp ****                      hw.GetPin(PIN_MUX_SEL_0),
 122:birds-and-the-bees.cpp ****                      hw.GetPin(PIN_MUX_SEL_1),
 123:birds-and-the-bees.cpp ****                      hw.GetPin(PIN_MUX_SEL_2));
 124:birds-and-the-bees.cpp ****   adc_cfg[1].InitMux(hw.GetPin(PIN_ADC_POT_MUX2),
 712              		.loc 10 124 3 is_stmt 1 view .LVU154
 713              		.loc 10 124 21 is_stmt 0 view .LVU155
 714 004c 324B     		ldr	r3, .L37+16
 715 004e 1878     		ldrb	r0, [r3]	@ zero_extendqisi2
 716 0050 FFF7FEFF 		bl	_ZN5daisy9DaisySeed6GetPinEh
 717              	.LVL52:
 718 0054 0346     		mov	r3, r0	@ movhi
 719 0056 3078     		ldrb	r0, [r6]	@ zero_extendqisi2
 720 0058 ADF82430 		strh	r3, [sp, #36]	@ movhi
 721 005c FFF7FEFF 		bl	_ZN5daisy9DaisySeed6GetPinEh
 722              	.LVL53:
 723 0060 0346     		mov	r3, r0	@ movhi
 724 0062 2878     		ldrb	r0, [r5]	@ zero_extendqisi2
 725              	.LBB123:
 125:birds-and-the-bees.cpp ****                      8,
 126:birds-and-the-bees.cpp ****                      hw.GetPin(PIN_MUX_SEL_0),
 127:birds-and-the-bees.cpp ****                      hw.GetPin(PIN_MUX_SEL_1),
 128:birds-and-the-bees.cpp ****                      hw.GetPin(PIN_MUX_SEL_2));
 129:birds-and-the-bees.cpp ****   // adc_cfg[2].InitMux(hw.GetPin(PIN_ADC_POT_MUX3),
 130:birds-and-the-bees.cpp ****   //                    8,
 131:birds-and-the-bees.cpp ****   //                    hw.GetPin(PIN_MUX_SEL_0),
 132:birds-and-the-bees.cpp ****   //                    hw.GetPin(PIN_MUX_SEL_1),
 133:birds-and-the-bees.cpp ****   //                    hw.GetPin(PIN_MUX_SEL_2));
 134:birds-and-the-bees.cpp **** 
 135:birds-and-the-bees.cpp ****   hw.adc.Init(adc_cfg, 2);
 136:birds-and-the-bees.cpp ****   hw.adc.Start();
 137:birds-and-the-bees.cpp ****   hw.StartLog(false);
 138:birds-and-the-bees.cpp **** 
 139:birds-and-the-bees.cpp ****   //   // Order of pots on the hardware connected to mux.
 140:birds-and-the-bees.cpp ****   //   //   for(size_t i = 0; i < 24; i+=3)
 141:birds-and-the-bees.cpp ****   for (size_t i = 0; i < 16; i += 2) {
 726              		.loc 10 141 15 view .LVU156
 727 0064 0025     		movs	r5, #0
 728 0066 2D4E     		ldr	r6, .L37+20
 729              	.LBE123:
 124:birds-and-the-bees.cpp ****                      8,
 730              		.loc 10 124 21 view .LVU157
 731 0068 ADF82830 		strh	r3, [sp, #40]	@ movhi
 732 006c FFF7FEFF 		bl	_ZN5daisy9DaisySeed6GetPinEh
 733              	.LVL54:
 734 0070 0346     		mov	r3, r0	@ movhi
 735 0072 2078     		ldrb	r0, [r4]	@ zero_extendqisi2
ARM GAS  /var/folders/qg/q4v9m50j32g19d5z_5604vrc0000gp/T//ccUPYPJZ.s 			page 25


 736 0074 ADF82C30 		strh	r3, [sp, #44]	@ movhi
 737 0078 FFF7FEFF 		bl	_ZN5daisy9DaisySeed6GetPinEh
 738              	.LVL55:
 739 007c BDF82C10 		ldrh	r1, [sp, #44]
 740 0080 0822     		movs	r2, #8
 741 0082 0A9B     		ldr	r3, [sp, #40]
 742 0084 ADF80400 		strh	r0, [sp, #4]	@ movhi
 743 0088 0DF14500 		add	r0, sp, #69
 744 008c ADF80010 		strh	r1, [sp]	@ movhi
 745 0090 0999     		ldr	r1, [sp, #36]
 746 0092 FFF7FEFF 		bl	_ZN5daisy16AdcChannelConfig7InitMuxE12dsy_gpio_pinjS1_S1_S1_
 747              	.LVL56:
 135:birds-and-the-bees.cpp ****   hw.adc.Start();
 748              		.loc 10 135 3 is_stmt 1 view .LVU158
 135:birds-and-the-bees.cpp ****   hw.adc.Start();
 749              		.loc 10 135 14 is_stmt 0 view .LVU159
 750 0096 0423     		movs	r3, #4
 751 0098 0222     		movs	r2, #2
 752 009a 0DA9     		add	r1, sp, #52
 753 009c 2048     		ldr	r0, .L37+24
 754 009e FFF7FEFF 		bl	_ZN5daisy9AdcHandle4InitEPNS_16AdcChannelConfigEjNS0_12OverSamplingE
 755              	.LVL57:
 136:birds-and-the-bees.cpp ****   hw.StartLog(false);
 756              		.loc 10 136 3 is_stmt 1 view .LVU160
 136:birds-and-the-bees.cpp ****   hw.StartLog(false);
 757              		.loc 10 136 15 is_stmt 0 view .LVU161
 758 00a2 1F48     		ldr	r0, .L37+24
 759 00a4 FFF7FEFF 		bl	_ZN5daisy9AdcHandle5StartEv
 760              	.LVL58:
 137:birds-and-the-bees.cpp **** 
 761              		.loc 10 137 3 is_stmt 1 view .LVU162
 762              	.LBB124:
 763              	.LBI124:
  23:../libDaisy/src/daisy_seed.h **** 
  24:../libDaisy/src/daisy_seed.h ****     /** 
  25:../libDaisy/src/daisy_seed.h ****     Configures the settings for all internal peripherals,
  26:../libDaisy/src/daisy_seed.h ****     but does not initialize them.
  27:../libDaisy/src/daisy_seed.h ****     This allows for modification of the configuration
  28:../libDaisy/src/daisy_seed.h ****     handles prior to initialization.
  29:../libDaisy/src/daisy_seed.h ****     */
  30:../libDaisy/src/daisy_seed.h **** 
  31:../libDaisy/src/daisy_seed.h ****     //Defaults listed below:
  32:../libDaisy/src/daisy_seed.h ****     //TODO: Add defaults
  33:../libDaisy/src/daisy_seed.h **** 
  34:../libDaisy/src/daisy_seed.h ****     /** & */
  35:../libDaisy/src/daisy_seed.h ****     void Configure();
  36:../libDaisy/src/daisy_seed.h **** 
  37:../libDaisy/src/daisy_seed.h ****     /** 
  38:../libDaisy/src/daisy_seed.h ****     Initializes the Daisy Seed and the following peripherals:
  39:../libDaisy/src/daisy_seed.h ****     SDRAM, QSPI, 24-bit 48kHz Audio via AK4556, Internal USB,
  40:../libDaisy/src/daisy_seed.h ****     as well as the built-in LED and Testpoint.
  41:../libDaisy/src/daisy_seed.h **** 
  42:../libDaisy/src/daisy_seed.h ****     ADCs, DACs, and other special peripherals (such as I2C, SPI, etc.)
  43:../libDaisy/src/daisy_seed.h ****     can be initialized using their specific initializers within libdaisy
  44:../libDaisy/src/daisy_seed.h ****     for a specific application.
  45:../libDaisy/src/daisy_seed.h ****     */
  46:../libDaisy/src/daisy_seed.h ****     void Init(bool boost = false);
ARM GAS  /var/folders/qg/q4v9m50j32g19d5z_5604vrc0000gp/T//ccUPYPJZ.s 			page 26


  47:../libDaisy/src/daisy_seed.h **** 
  48:../libDaisy/src/daisy_seed.h ****     /** 
  49:../libDaisy/src/daisy_seed.h ****     Wait some ms before going on.
  50:../libDaisy/src/daisy_seed.h ****     \param del Delay time in ms.
  51:../libDaisy/src/daisy_seed.h ****     */
  52:../libDaisy/src/daisy_seed.h ****     void DelayMs(size_t del);
  53:../libDaisy/src/daisy_seed.h **** 
  54:../libDaisy/src/daisy_seed.h ****     /** 
  55:../libDaisy/src/daisy_seed.h ****     Returns the gpio_pin corresponding to the index 0-31.
  56:../libDaisy/src/daisy_seed.h ****     For the given GPIO on the Daisy Seed (labeled 1-32 in docs).
  57:../libDaisy/src/daisy_seed.h ****     */
  58:../libDaisy/src/daisy_seed.h ****     static dsy_gpio_pin GetPin(uint8_t pin_idx);
  59:../libDaisy/src/daisy_seed.h **** 
  60:../libDaisy/src/daisy_seed.h ****     /** Begins the audio for the seeds builtin audio.
  61:../libDaisy/src/daisy_seed.h ****     the specified callback will get called whenever
  62:../libDaisy/src/daisy_seed.h ****     new data is ready to be prepared.
  63:../libDaisy/src/daisy_seed.h ****     */
  64:../libDaisy/src/daisy_seed.h ****     void StartAudio(AudioHandle::InterleavingAudioCallback cb);
  65:../libDaisy/src/daisy_seed.h **** 
  66:../libDaisy/src/daisy_seed.h ****     /** Begins the audio for the seeds builtin audio.
  67:../libDaisy/src/daisy_seed.h ****     the specified callback will get called whenever
  68:../libDaisy/src/daisy_seed.h ****     new data is ready to be prepared.
  69:../libDaisy/src/daisy_seed.h ****     This will use the newer non-interleaved callback.
  70:../libDaisy/src/daisy_seed.h ****     */
  71:../libDaisy/src/daisy_seed.h ****     void StartAudio(AudioHandle::AudioCallback cb);
  72:../libDaisy/src/daisy_seed.h **** 
  73:../libDaisy/src/daisy_seed.h ****     /** Changes to a new interleaved callback
  74:../libDaisy/src/daisy_seed.h ****      */
  75:../libDaisy/src/daisy_seed.h ****     void ChangeAudioCallback(AudioHandle::InterleavingAudioCallback cb);
  76:../libDaisy/src/daisy_seed.h **** 
  77:../libDaisy/src/daisy_seed.h ****     /** Changes to a new multichannel callback
  78:../libDaisy/src/daisy_seed.h ****      */
  79:../libDaisy/src/daisy_seed.h ****     void ChangeAudioCallback(AudioHandle::AudioCallback cb);
  80:../libDaisy/src/daisy_seed.h **** 
  81:../libDaisy/src/daisy_seed.h ****     /** Stops the audio if it is running. */
  82:../libDaisy/src/daisy_seed.h ****     void StopAudio();
  83:../libDaisy/src/daisy_seed.h **** 
  84:../libDaisy/src/daisy_seed.h ****     /** Updates the Audio Sample Rate, and reinitializes.
  85:../libDaisy/src/daisy_seed.h ****      ** Audio must be stopped for this to work.
  86:../libDaisy/src/daisy_seed.h ****      */
  87:../libDaisy/src/daisy_seed.h ****     void SetAudioSampleRate(SaiHandle::Config::SampleRate samplerate);
  88:../libDaisy/src/daisy_seed.h **** 
  89:../libDaisy/src/daisy_seed.h ****     /** Returns the audio sample rate in Hz as a floating point number.
  90:../libDaisy/src/daisy_seed.h ****      */
  91:../libDaisy/src/daisy_seed.h ****     float AudioSampleRate();
  92:../libDaisy/src/daisy_seed.h **** 
  93:../libDaisy/src/daisy_seed.h ****     /** Sets the number of samples processed per channel by the audio callback.
  94:../libDaisy/src/daisy_seed.h ****      */
  95:../libDaisy/src/daisy_seed.h ****     void SetAudioBlockSize(size_t blocksize);
  96:../libDaisy/src/daisy_seed.h **** 
  97:../libDaisy/src/daisy_seed.h ****     /** Returns the number of samples per channel in a block of audio. */
  98:../libDaisy/src/daisy_seed.h ****     size_t AudioBlockSize();
  99:../libDaisy/src/daisy_seed.h **** 
 100:../libDaisy/src/daisy_seed.h ****     /** Returns the rate in Hz that the Audio callback is called */
 101:../libDaisy/src/daisy_seed.h ****     float AudioCallbackRate() const;
 102:../libDaisy/src/daisy_seed.h **** 
 103:../libDaisy/src/daisy_seed.h ****     /** Sets the state of the built in LED
ARM GAS  /var/folders/qg/q4v9m50j32g19d5z_5604vrc0000gp/T//ccUPYPJZ.s 			page 27


 104:../libDaisy/src/daisy_seed.h ****      */
 105:../libDaisy/src/daisy_seed.h ****     void SetLed(bool state);
 106:../libDaisy/src/daisy_seed.h **** 
 107:../libDaisy/src/daisy_seed.h ****     /** Sets the state of the test point near pin 10
 108:../libDaisy/src/daisy_seed.h ****      */
 109:../libDaisy/src/daisy_seed.h ****     void SetTestPoint(bool state);
 110:../libDaisy/src/daisy_seed.h **** 
 111:../libDaisy/src/daisy_seed.h ****     /** Print formatted debug log message
 112:../libDaisy/src/daisy_seed.h ****      */
 113:../libDaisy/src/daisy_seed.h ****     template <typename... VA>
 114:../libDaisy/src/daisy_seed.h ****     static void Print(const char* format, VA... va)
 115:../libDaisy/src/daisy_seed.h ****     {
 116:../libDaisy/src/daisy_seed.h ****         Log::Print(format, va...);
 117:../libDaisy/src/daisy_seed.h ****     }
 118:../libDaisy/src/daisy_seed.h **** 
 119:../libDaisy/src/daisy_seed.h ****     /** Print formatted debug log message with automatic line termination
 120:../libDaisy/src/daisy_seed.h ****     */
 121:../libDaisy/src/daisy_seed.h ****     template <typename... VA>
 122:../libDaisy/src/daisy_seed.h ****     static void PrintLine(const char* format, VA... va)
 123:../libDaisy/src/daisy_seed.h ****     {
 124:../libDaisy/src/daisy_seed.h ****         Log::PrintLine(format, va...);
 125:../libDaisy/src/daisy_seed.h ****     }
 126:../libDaisy/src/daisy_seed.h **** 
 127:../libDaisy/src/daisy_seed.h ****     /** Start the logging session. Optionally wait for terminal connection before proceeding.
 128:../libDaisy/src/daisy_seed.h ****     */
 129:../libDaisy/src/daisy_seed.h ****     static void StartLog(bool wait_for_pc = false)
 764              		.loc 2 129 17 view .LVU163
 765              	.LBB125:
 130:../libDaisy/src/daisy_seed.h ****     {
 131:../libDaisy/src/daisy_seed.h ****         Log::StartLog(wait_for_pc);
 766              		.loc 2 131 9 view .LVU164
 767              		.loc 2 131 22 is_stmt 0 view .LVU165
 768 00a8 2846     		mov	r0, r5
 769 00aa FFF7FEFF 		bl	_ZN5daisy6LoggerILNS_17LoggerDestinationE1EE8StartLogEb
 770              	.LVL59:
 771              		.loc 2 131 22 view .LVU166
 772              	.LBE125:
 773              	.LBE124:
 774              		.loc 10 141 3 is_stmt 1 view .LVU167
 775              	.LBB126:
 776              		.loc 10 141 24 view .LVU168
 777              	.L34:
 142:birds-and-the-bees.cpp ****     knob_[i].Init(hw.adc.GetMuxPtr(0, i), hw.AudioCallbackRate());
 778              		.loc 10 142 5 discriminator 2 view .LVU169
 779 00ae ECB2     		uxtb	r4, r5
 780              		.loc 10 142 18 is_stmt 0 discriminator 2 view .LVU170
 781 00b0 0021     		movs	r1, #0
 782 00b2 1B48     		ldr	r0, .L37+24
 141:birds-and-the-bees.cpp ****     knob_[i].Init(hw.adc.GetMuxPtr(0, i), hw.AudioCallbackRate());
 783              		.loc 10 141 32 discriminator 2 view .LVU171
 784 00b4 0235     		adds	r5, r5, #2
 785              	.LVL60:
 786              		.loc 10 142 18 discriminator 2 view .LVU172
 787 00b6 2246     		mov	r2, r4
 788 00b8 FFF7FEFF 		bl	_ZNK5daisy9AdcHandle9GetMuxPtrEhh
 789              	.LVL61:
 790 00bc 0146     		mov	r1, r0
ARM GAS  /var/folders/qg/q4v9m50j32g19d5z_5604vrc0000gp/T//ccUPYPJZ.s 			page 28


 791 00be 1948     		ldr	r0, .L37+28
 792 00c0 0391     		str	r1, [sp, #12]
 793 00c2 FFF7FEFF 		bl	_ZNK5daisy9DaisySeed17AudioCallbackRateEv
 794              	.LVL62:
 795 00c6 0023     		movs	r3, #0
 796 00c8 DFED170A 		vldr.32	s1, .L37+32
 797 00cc 3046     		mov	r0, r6
 798 00ce 0399     		ldr	r1, [sp, #12]
 799 00d0 1A46     		mov	r2, r3
 800 00d2 FFF7FEFF 		bl	_ZN5daisy13AnalogControl4InitEPtfbbf
 801              	.LVL63:
 143:birds-and-the-bees.cpp ****     knob_[i + 1].Init(hw.adc.GetMuxPtr(1, i + 1), hw.AudioCallbackRate());
 802              		.loc 10 143 5 is_stmt 1 discriminator 2 view .LVU173
 803              		.loc 10 143 22 is_stmt 0 discriminator 2 view .LVU174
 804 00d6 621C     		adds	r2, r4, #1
 805 00d8 0121     		movs	r1, #1
 806 00da 1148     		ldr	r0, .L37+24
 807 00dc D2B2     		uxtb	r2, r2
 808 00de FFF7FEFF 		bl	_ZNK5daisy9AdcHandle9GetMuxPtrEhh
 809              	.LVL64:
 810 00e2 0146     		mov	r1, r0
 811 00e4 0F48     		ldr	r0, .L37+28
 812 00e6 0391     		str	r1, [sp, #12]
 813 00e8 FFF7FEFF 		bl	_ZNK5daisy9DaisySeed17AudioCallbackRateEv
 814              	.LVL65:
 815 00ec 0023     		movs	r3, #0
 816 00ee 06F12000 		add	r0, r6, #32
 817 00f2 DFED0D0A 		vldr.32	s1, .L37+32
 141:birds-and-the-bees.cpp ****     knob_[i].Init(hw.adc.GetMuxPtr(0, i), hw.AudioCallbackRate());
 818              		.loc 10 141 24 discriminator 2 view .LVU175
 819 00f6 4036     		adds	r6, r6, #64
 820              		.loc 10 143 22 discriminator 2 view .LVU176
 821 00f8 0399     		ldr	r1, [sp, #12]
 822 00fa 1A46     		mov	r2, r3
 823 00fc FFF7FEFF 		bl	_ZN5daisy13AnalogControl4InitEPtfbbf
 824              	.LVL66:
 141:birds-and-the-bees.cpp ****     knob_[i].Init(hw.adc.GetMuxPtr(0, i), hw.AudioCallbackRate());
 825              		.loc 10 141 3 is_stmt 1 discriminator 2 view .LVU177
 141:birds-and-the-bees.cpp ****     knob_[i].Init(hw.adc.GetMuxPtr(0, i), hw.AudioCallbackRate());
 826              		.loc 10 141 24 discriminator 2 view .LVU178
 827 0100 102D     		cmp	r5, #16
 828 0102 D4D1     		bne	.L34
 829              	.LBE126:
 144:birds-and-the-bees.cpp ****     // knob_[i + 2].Init(hw.adc.GetMuxPtr(2, i + 2), AudioCallbackRate());
 145:birds-and-the-bees.cpp ****   }
 146:birds-and-the-bees.cpp **** }
 830              		.loc 10 146 1 is_stmt 0 view .LVU179
 831 0104 16B0     		add	sp, sp, #88
 832              		.cfi_def_cfa_offset 16
 833              		@ sp needed
 834 0106 70BD     		pop	{r4, r5, r6, pc}
 835              	.LVL67:
 836              	.L38:
 837              		.loc 10 146 1 view .LVU180
 838              		.align	2
 839              	.L37:
 840 0108 00000000 		.word	.LANCHOR10
ARM GAS  /var/folders/qg/q4v9m50j32g19d5z_5604vrc0000gp/T//ccUPYPJZ.s 			page 29


 841 010c 00000000 		.word	.LANCHOR11
 842 0110 00000000 		.word	.LANCHOR12
 843 0114 00000000 		.word	.LANCHOR13
 844 0118 00000000 		.word	.LANCHOR14
 845 011c 00000000 		.word	.LANCHOR15
 846 0120 18000000 		.word	.LANCHOR0+24
 847 0124 00000000 		.word	.LANCHOR0
 848 0128 6F12033B 		.word	990057071
 849              		.cfi_endproc
 850              	.LFE4243:
 852              		.section	.text._Z14setupNormalAdcv,"ax",%progbits
 853              		.align	1
 854              		.p2align 2,,3
 855              		.global	_Z14setupNormalAdcv
 856              		.syntax unified
 857              		.thumb
 858              		.thumb_func
 859              		.fpu fpv5-d16
 861              	_Z14setupNormalAdcv:
 862              	.LFB4244:
 147:birds-and-the-bees.cpp **** 
 148:birds-and-the-bees.cpp **** void setupNormalAdc(void) {
 863              		.loc 10 148 27 is_stmt 1 view -0
 864              		.cfi_startproc
 865              		@ args = 0, pretend = 0, frame = 24
 866              		@ frame_needed = 0, uses_anonymous_args = 0
 149:birds-and-the-bees.cpp ****   AdcChannelConfig adcConfig;
 867              		.loc 10 149 3 view .LVU182
 150:birds-and-the-bees.cpp ****   adcConfig.InitSingle(hw.GetPin(15));
 868              		.loc 10 150 3 view .LVU183
 148:birds-and-the-bees.cpp ****   AdcChannelConfig adcConfig;
 869              		.loc 10 148 27 is_stmt 0 view .LVU184
 870 0000 10B5     		push	{r4, lr}
 871              		.cfi_def_cfa_offset 8
 872              		.cfi_offset 4, -8
 873              		.cfi_offset 14, -4
 874              		.loc 10 150 23 view .LVU185
 875 0002 0F20     		movs	r0, #15
 148:birds-and-the-bees.cpp ****   AdcChannelConfig adcConfig;
 876              		.loc 10 148 27 view .LVU186
 877 0004 86B0     		sub	sp, sp, #24
 878              		.cfi_def_cfa_offset 32
 879              		.loc 10 150 23 view .LVU187
 880 0006 FFF7FEFF 		bl	_ZN5daisy9DaisySeed6GetPinEh
 881              	.LVL68:
 882 000a 0346     		mov	r3, r0	@ movhi
 883 000c 01A8     		add	r0, sp, #4
 151:birds-and-the-bees.cpp ****   hw.adc.Init(&adcConfig, 1);
 884              		.loc 10 151 14 view .LVU188
 885 000e 094C     		ldr	r4, .L41
 150:birds-and-the-bees.cpp ****   adcConfig.InitSingle(hw.GetPin(15));
 886              		.loc 10 150 23 view .LVU189
 887 0010 ADF80030 		strh	r3, [sp]	@ movhi
 888 0014 0099     		ldr	r1, [sp]
 889 0016 FFF7FEFF 		bl	_ZN5daisy16AdcChannelConfig10InitSingleE12dsy_gpio_pin
 890              	.LVL69:
 891              		.loc 10 151 3 is_stmt 1 view .LVU190
ARM GAS  /var/folders/qg/q4v9m50j32g19d5z_5604vrc0000gp/T//ccUPYPJZ.s 			page 30


 892              		.loc 10 151 14 is_stmt 0 view .LVU191
 893 001a 0423     		movs	r3, #4
 894 001c 0122     		movs	r2, #1
 895 001e 2046     		mov	r0, r4
 896 0020 0DEB0301 		add	r1, sp, r3
 897 0024 FFF7FEFF 		bl	_ZN5daisy9AdcHandle4InitEPNS_16AdcChannelConfigEjNS0_12OverSamplingE
 898              	.LVL70:
 152:birds-and-the-bees.cpp ****   hw.adc.Start();
 899              		.loc 10 152 3 is_stmt 1 view .LVU192
 900              		.loc 10 152 15 is_stmt 0 view .LVU193
 901 0028 2046     		mov	r0, r4
 902 002a FFF7FEFF 		bl	_ZN5daisy9AdcHandle5StartEv
 903              	.LVL71:
 153:birds-and-the-bees.cpp **** }
 904              		.loc 10 153 1 view .LVU194
 905 002e 06B0     		add	sp, sp, #24
 906              		.cfi_def_cfa_offset 8
 907              		@ sp needed
 908 0030 10BD     		pop	{r4, pc}
 909              	.L42:
 910 0032 00BF     		.align	2
 911              	.L41:
 912 0034 18000000 		.word	.LANCHOR0+24
 913              		.cfi_endproc
 914              	.LFE4244:
 916              		.section	.text.startup.main,"ax",%progbits
 917              		.align	1
 918              		.p2align 2,,3
 919              		.global	main
 920              		.syntax unified
 921              		.thumb
 922              		.thumb_func
 923              		.fpu fpv5-d16
 925              	main:
 926              	.LFB4245:
 154:birds-and-the-bees.cpp **** 
 155:birds-and-the-bees.cpp **** int main(void) {
 927              		.loc 10 155 16 is_stmt 1 view -0
 928              		.cfi_startproc
 929              		@ args = 0, pretend = 0, frame = 8
 930              		@ frame_needed = 0, uses_anonymous_args = 0
 156:birds-and-the-bees.cpp ****   // initialize hw hardware and oscillator daisysp module
 157:birds-and-the-bees.cpp ****   float sample_rate;
 931              		.loc 10 157 3 view .LVU196
 158:birds-and-the-bees.cpp ****   hw.Configure();
 932              		.loc 10 158 3 view .LVU197
 155:birds-and-the-bees.cpp ****   // initialize hw hardware and oscillator daisysp module
 933              		.loc 10 155 16 is_stmt 0 view .LVU198
 934 0000 10B5     		push	{r4, lr}
 935              		.cfi_def_cfa_offset 8
 936              		.cfi_offset 4, -8
 937              		.cfi_offset 14, -4
 938              		.loc 10 158 15 view .LVU199
 939 0002 2748     		ldr	r0, .L46
 940 0004 274C     		ldr	r4, .L46+4
 155:birds-and-the-bees.cpp ****   // initialize hw hardware and oscillator daisysp module
 941              		.loc 10 155 16 view .LVU200
ARM GAS  /var/folders/qg/q4v9m50j32g19d5z_5604vrc0000gp/T//ccUPYPJZ.s 			page 31


 942 0006 2DED028B 		vpush.64	{d8}
 943              		.cfi_def_cfa_offset 16
 944              		.cfi_offset 80, -16
 945              		.cfi_offset 81, -12
 946 000a 82B0     		sub	sp, sp, #8
 947              		.cfi_def_cfa_offset 24
 948              		.loc 10 158 15 view .LVU201
 949 000c FFF7FEFF 		bl	_ZN5daisy9DaisySeed9ConfigureEv
 950              	.LVL72:
 159:birds-and-the-bees.cpp ****   hw.Init();
 951              		.loc 10 159 3 is_stmt 1 view .LVU202
 952              		.loc 10 159 10 is_stmt 0 view .LVU203
 953 0010 0021     		movs	r1, #0
 954 0012 2348     		ldr	r0, .L46
 955 0014 FFF7FEFF 		bl	_ZN5daisy9DaisySeed4InitEb
 956              	.LVL73:
 160:birds-and-the-bees.cpp ****   hw.SetAudioBlockSize(AUDIO_BLOCK_SIZE);
 957              		.loc 10 160 3 is_stmt 1 view .LVU204
 958              		.loc 10 160 23 is_stmt 0 view .LVU205
 959 0018 3021     		movs	r1, #48
 960 001a 2148     		ldr	r0, .L46
 961 001c FFF7FEFF 		bl	_ZN5daisy9DaisySeed17SetAudioBlockSizeEj
 962              	.LVL74:
 161:birds-and-the-bees.cpp ****   sample_rate = hw.AudioSampleRate();
 963              		.loc 10 161 3 is_stmt 1 view .LVU206
 964              		.loc 10 161 35 is_stmt 0 view .LVU207
 965 0020 1F48     		ldr	r0, .L46
 966 0022 FFF7FEFF 		bl	_ZN5daisy9DaisySeed15AudioSampleRateEv
 967              	.LVL75:
 162:birds-and-the-bees.cpp **** 
 163:birds-and-the-bees.cpp ****   button1.Init(hw.GetPin(1), 1000); // i think this has to tbe a purple pinout
 968              		.loc 10 163 15 view .LVU208
 969 0026 0120     		movs	r0, #1
 161:birds-and-the-bees.cpp ****   sample_rate = hw.AudioSampleRate();
 970              		.loc 10 161 35 view .LVU209
 971 0028 B0EE408A 		vmov.f32	s16, s0
 972              	.LVL76:
 973              		.loc 10 163 3 is_stmt 1 view .LVU210
 974              		.loc 10 163 15 is_stmt 0 view .LVU211
 975 002c FFF7FEFF 		bl	_ZN5daisy9DaisySeed6GetPinEh
 976              	.LVL77:
 977              		.loc 10 163 15 view .LVU212
 978 0030 0346     		mov	r3, r0	@ movhi
 979 0032 9FED1D0A 		vldr.32	s0, .L46+8
 980 0036 1D48     		ldr	r0, .L46+12
 981 0038 ADF80430 		strh	r3, [sp, #4]	@ movhi
 982 003c 0199     		ldr	r1, [sp, #4]
 983 003e FFF7FEFF 		bl	_ZN5daisy6Switch4InitE12dsy_gpio_pinf
 984              	.LVL78:
 164:birds-and-the-bees.cpp ****   setupNormalAdc();
 985              		.loc 10 164 3 is_stmt 1 view .LVU213
 986              		.loc 10 164 17 is_stmt 0 view .LVU214
 987 0042 FFF7FEFF 		bl	_Z14setupNormalAdcv
 988              	.LVL79:
 165:birds-and-the-bees.cpp ****   
 166:birds-and-the-bees.cpp **** 
 167:birds-and-the-bees.cpp ****   // AdcChannelConfig adcConfig;
ARM GAS  /var/folders/qg/q4v9m50j32g19d5z_5604vrc0000gp/T//ccUPYPJZ.s 			page 32


 168:birds-and-the-bees.cpp ****   // adcConfig.InitSingle(hw.GetPin(15));
 169:birds-and-the-bees.cpp ****   // hw.adc.Init(&adcConfig, 1);
 170:birds-and-the-bees.cpp ****   // hw.adc.Start();
 171:birds-and-the-bees.cpp **** 
 172:birds-and-the-bees.cpp ****   //   AdcChannelConfig adc[4];
 173:birds-and-the-bees.cpp ****   //   adc[0].InitSingle(hw.GetPin(15));
 174:birds-and-the-bees.cpp ****   //   adc[1].InitSingle(hw.GetPin(16));
 175:birds-and-the-bees.cpp ****   //   adc[2].InitSingle(hw.GetPin(17));
 176:birds-and-the-bees.cpp ****   //   adc[3].InitSingle(hw.GetPin(18));
 177:birds-and-the-bees.cpp ****   //   hw.adc.Init(adc, 4); // my Daisyhw instance is called hw
 178:birds-and-the-bees.cpp ****   //   hw.adc.Start();
 179:birds-and-the-bees.cpp **** 
 180:birds-and-the-bees.cpp ****   // Set parameters for oscillator
 181:birds-and-the-bees.cpp ****   SetupOsc(sample_rate);
 989              		.loc 10 181 3 is_stmt 1 view .LVU215
 990              		.loc 10 181 11 is_stmt 0 view .LVU216
 991 0046 B0EE480A 		vmov.f32	s0, s16
 992 004a FFF7FEFF 		bl	_Z8SetupOscf
 993              	.LVL80:
 182:birds-and-the-bees.cpp ****   envelope.Init(sample_rate, AUDIO_BLOCK_SIZE);
 994              		.loc 10 182 3 is_stmt 1 view .LVU217
 995              		.loc 10 182 16 is_stmt 0 view .LVU218
 996 004e 3021     		movs	r1, #48
 997 0050 B0EE480A 		vmov.f32	s0, s16
 998 0054 1648     		ldr	r0, .L46+16
 999 0056 FFF7FEFF 		bl	_ZN7daisysp4Adsr4InitEfi
 1000              	.LVL81:
 183:birds-and-the-bees.cpp ****   envelope.SetAttackTime(0.5f);
 1001              		.loc 10 183 3 is_stmt 1 view .LVU219
 1002              		.loc 10 183 25 is_stmt 0 view .LVU220
 1003 005a DFED160A 		vldr.32	s1, .L46+20
 1004 005e B6EE000A 		vmov.f32	s0, #5.0e-1
 1005 0062 1348     		ldr	r0, .L46+16
 1006 0064 FFF7FEFF 		bl	_ZN7daisysp4Adsr13SetAttackTimeEff
 1007              	.LVL82:
 184:birds-and-the-bees.cpp ****   envelope.SetReleaseTime(10.5f);
 1008              		.loc 10 184 3 is_stmt 1 view .LVU221
 1009              		.loc 10 184 26 is_stmt 0 view .LVU222
 1010 0068 B2EE050A 		vmov.f32	s0, #1.05e+1
 1011 006c 1048     		ldr	r0, .L46+16
 1012 006e FFF7FEFF 		bl	_ZN7daisysp4Adsr14SetReleaseTimeEf
 1013              	.LVL83:
 185:birds-and-the-bees.cpp **** 
 186:birds-and-the-bees.cpp ****   port.Init(sample_rate, 0.05f);
 1014              		.loc 10 186 3 is_stmt 1 view .LVU223
 1015              		.loc 10 186 12 is_stmt 0 view .LVU224
 1016 0072 1148     		ldr	r0, .L46+24
 1017 0074 B0EE480A 		vmov.f32	s0, s16
 1018 0078 DFED100A 		vldr.32	s1, .L46+28
 1019 007c FFF7FEFF 		bl	_ZN7daisysp4Port4InitEff
 1020              	.LVL84:
 187:birds-and-the-bees.cpp **** 
 188:birds-and-the-bees.cpp **** 
 189:birds-and-the-bees.cpp ****       // start callback
 190:birds-and-the-bees.cpp ****   hw.StartAudio(AudioCallback);
 1021              		.loc 10 190 3 is_stmt 1 view .LVU225
 1022              		.loc 10 190 16 is_stmt 0 view .LVU226
ARM GAS  /var/folders/qg/q4v9m50j32g19d5z_5604vrc0000gp/T//ccUPYPJZ.s 			page 33


 1023 0080 0F49     		ldr	r1, .L46+32
 1024 0082 0748     		ldr	r0, .L46
 1025 0084 FFF7FEFF 		bl	_ZN5daisy9DaisySeed10StartAudioEPFvPKfPfjE
 1026              	.LVL85:
 1027              	.L44:
 191:birds-and-the-bees.cpp **** 
 192:birds-and-the-bees.cpp ****   while (1) {
 1028              		.loc 10 192 3 is_stmt 1 discriminator 1 view .LVU227
 193:birds-and-the-bees.cpp ****     knob = hw.adc.GetFloat(0);
 1029              		.loc 10 193 5 discriminator 1 view .LVU228
 1030              		.loc 10 193 27 is_stmt 0 discriminator 1 view .LVU229
 1031 0088 0021     		movs	r1, #0
 1032 008a 0E48     		ldr	r0, .L46+36
 1033 008c FFF7FEFF 		bl	_ZNK5daisy9AdcHandle8GetFloatEh
 1034              	.LVL86:
 194:birds-and-the-bees.cpp ****     hw.DelayMs(100);
 1035              		.loc 10 194 15 discriminator 1 view .LVU230
 1036 0090 6421     		movs	r1, #100
 1037 0092 0348     		ldr	r0, .L46
 193:birds-and-the-bees.cpp ****     knob = hw.adc.GetFloat(0);
 1038              		.loc 10 193 10 discriminator 1 view .LVU231
 1039 0094 84ED000A 		vstr.32	s0, [r4]
 1040              		.loc 10 194 5 is_stmt 1 discriminator 1 view .LVU232
 1041              		.loc 10 194 15 is_stmt 0 discriminator 1 view .LVU233
 1042 0098 FFF7FEFF 		bl	_ZN5daisy9DaisySeed7DelayMsEj
 1043              	.LVL87:
 192:birds-and-the-bees.cpp ****     knob = hw.adc.GetFloat(0);
 1044              		.loc 10 192 3 is_stmt 1 discriminator 1 view .LVU234
 1045 009c F4E7     		b	.L44
 1046              	.L47:
 1047 009e 00BF     		.align	2
 1048              	.L46:
 1049 00a0 00000000 		.word	.LANCHOR0
 1050 00a4 00000000 		.word	.LANCHOR1
 1051 00a8 00007A44 		.word	1148846080
 1052 00ac 00000000 		.word	.LANCHOR2
 1053 00b0 00000000 		.word	.LANCHOR8
 1054 00b4 00000000 		.word	0
 1055 00b8 00000000 		.word	.LANCHOR5
 1056 00bc CDCC4C3D 		.word	1028443341
 1057 00c0 00000000 		.word	_ZL13AudioCallbackPKfPfj
 1058 00c4 18000000 		.word	.LANCHOR0+24
 1059              		.cfi_endproc
 1060              	.LFE4245:
 1062              		.section	.text.startup._GLOBAL__sub_I_notes,"ax",%progbits
 1063              		.align	1
 1064              		.p2align 2,,3
 1065              		.syntax unified
 1066              		.thumb
 1067              		.thumb_func
 1068              		.fpu fpv5-d16
 1070              	_GLOBAL__sub_I_notes:
 1071              	.LFB4804:
 195:birds-and-the-bees.cpp ****   }
 196:birds-and-the-bees.cpp **** }
 1072              		.loc 10 196 1 view -0
 1073              		.cfi_startproc
ARM GAS  /var/folders/qg/q4v9m50j32g19d5z_5604vrc0000gp/T//ccUPYPJZ.s 			page 34


 1074              		@ args = 0, pretend = 0, frame = 0
 1075              		@ frame_needed = 0, uses_anonymous_args = 0
 1076              	.LBB155:
 1077              	.LBI155:
 1078              		.loc 10 196 1 view .LVU236
 1079              	.LVL88:
 1080              	.LBB156:
  18:birds-and-the-bees.cpp **** 
 1081              		.loc 10 18 23 view .LVU237
 1082              	.LBE156:
 1083              	.LBE155:
 1084              		.loc 10 196 1 is_stmt 0 view .LVU238
 1085 0000 38B5     		push	{r3, r4, r5, lr}
 1086              		.cfi_def_cfa_offset 16
 1087              		.cfi_offset 3, -16
 1088              		.cfi_offset 4, -12
 1089              		.cfi_offset 5, -8
 1090              		.cfi_offset 14, -4
 1091              	.LBB190:
 1092              	.LBB188:
  18:birds-and-the-bees.cpp **** 
 1093              		.loc 10 18 15 view .LVU239
 1094 0002 1D4C     		ldr	r4, .L50
 1095 0004 0020     		movs	r0, #0
 1096 0006 1D49     		ldr	r1, .L50+4
 1097 0008 2246     		mov	r2, r4
 1098              	.LBB157:
 1099              	.LBB158:
 1100              	.LBB159:
 1101              	.LBB160:
 1102              	.LBB161:
  62:../libDaisy/src/hid/audio.h ****     ~AudioHandle() {}
 1103              		.loc 6 62 35 view .LVU240
 1104 000a 0546     		mov	r5, r0
 1105              	.LBE161:
 1106              	.LBE160:
 1107              	.LBE159:
 1108              	.LBE158:
 1109              	.LBE157:
  18:birds-and-the-bees.cpp **** 
 1110              		.loc 10 18 15 view .LVU241
 1111 000c FFF7FEFF 		bl	__aeabi_atexit
 1112              	.LVL89:
 1113              	.LBB176:
 1114              	.LBI157:
  21:../libDaisy/src/daisy_seed.h ****     ~DaisySeed() {}
 1115              		.loc 2 21 5 is_stmt 1 view .LVU242
 1116              	.LBB174:
 1117              	.LBB166:
 1118              	.LBI159:
  62:../libDaisy/src/hid/audio.h ****     ~AudioHandle() {}
 1119              		.loc 6 62 5 view .LVU243
 1120              	.LBB164:
 1121              	.LBB162:
  62:../libDaisy/src/hid/audio.h ****     ~AudioHandle() {}
 1122              		.loc 6 62 35 is_stmt 0 view .LVU244
 1123 0010 1B48     		ldr	r0, .L50+8
ARM GAS  /var/folders/qg/q4v9m50j32g19d5z_5604vrc0000gp/T//ccUPYPJZ.s 			page 35


 1124              	.LBE162:
 1125              	.LBE164:
 1126              	.LBE166:
 1127              	.LBE174:
 1128              	.LBE176:
  20:birds-and-the-bees.cpp **** static VariableShapeOscillator osc[NUM_OF_OSCILLATORS];
 1129              		.loc 10 20 18 view .LVU245
 1130 0012 2246     		mov	r2, r4
 1131 0014 1B49     		ldr	r1, .L50+12
 1132              	.LBB177:
 1133              	.LBB175:
 1134              	.LBB167:
 1135              	.LBB165:
 1136              	.LBB163:
  62:../libDaisy/src/hid/audio.h ****     ~AudioHandle() {}
 1137              		.loc 6 62 35 view .LVU246
 1138 0016 4561     		str	r5, [r0, #20]
 1139              	.LVL90:
  62:../libDaisy/src/hid/audio.h ****     ~AudioHandle() {}
 1140              		.loc 6 62 35 view .LVU247
 1141              	.LBE163:
 1142              	.LBE165:
 1143              	.LBE167:
 1144              	.LBB168:
 1145              	.LBI168:
  84:../libDaisy/src/per/adc.h ****     ~AdcHandle() {}
 1146              		.loc 5 84 5 is_stmt 1 view .LVU248
  84:../libDaisy/src/per/adc.h ****     ~AdcHandle() {}
 1147              		.loc 5 84 5 is_stmt 0 view .LVU249
 1148              	.LBE168:
 1149              	.LBB169:
 1150              	.LBI169:
 1151              		.file 11 "../libDaisy/src/per/dac.h"
   1:../libDaisy/src/per/dac.h **** #pragma once
   2:../libDaisy/src/per/dac.h **** #ifndef DSY_DAC_H
   3:../libDaisy/src/per/dac.h **** #define DSY_DAC_H
   4:../libDaisy/src/per/dac.h **** 
   5:../libDaisy/src/per/dac.h **** #include "daisy_core.h"
   6:../libDaisy/src/per/dac.h **** 
   7:../libDaisy/src/per/dac.h **** namespace daisy
   8:../libDaisy/src/per/dac.h **** {
   9:../libDaisy/src/per/dac.h **** /** DAC handle for Built-in DAC Peripheral 
  10:../libDaisy/src/per/dac.h ****  ** 
  11:../libDaisy/src/per/dac.h ****  ** For now only Normal Mode is supported,
  12:../libDaisy/src/per/dac.h ****  ** Sample and hold mode provides reduced power consumption, but requires a bit more setup.
  13:../libDaisy/src/per/dac.h ****  **
  14:../libDaisy/src/per/dac.h ****  ** For now connecting the DAC through other internal periphearls is also not supported.
  15:../libDaisy/src/per/dac.h ****  **
  16:../libDaisy/src/per/dac.h ****  ** Since the DAC channels have dedicated pins we don't need to pass in a pin config like with
  17:../libDaisy/src/per/dac.h ****  ** other modules. However, it is still important to not try to use the DAC pins for anything else.
  18:../libDaisy/src/per/dac.h ****  ** DAC Channel 1 is on PA4, and DAC Channel 2 is on PA5
  19:../libDaisy/src/per/dac.h ****  ***/
  20:../libDaisy/src/per/dac.h **** class DacHandle
  21:../libDaisy/src/per/dac.h **** {
  22:../libDaisy/src/per/dac.h ****   public:
  23:../libDaisy/src/per/dac.h ****     /** Return Values for the DacHandle class */
  24:../libDaisy/src/per/dac.h ****     enum class Result
ARM GAS  /var/folders/qg/q4v9m50j32g19d5z_5604vrc0000gp/T//ccUPYPJZ.s 			page 36


  25:../libDaisy/src/per/dac.h ****     {
  26:../libDaisy/src/per/dac.h ****         OK,
  27:../libDaisy/src/per/dac.h ****         ERR,
  28:../libDaisy/src/per/dac.h ****     };
  29:../libDaisy/src/per/dac.h **** 
  30:../libDaisy/src/per/dac.h ****     /** Selects which channel(s) will be configured for use. */
  31:../libDaisy/src/per/dac.h ****     enum class Channel
  32:../libDaisy/src/per/dac.h ****     {
  33:../libDaisy/src/per/dac.h ****         ONE,
  34:../libDaisy/src/per/dac.h ****         TWO,
  35:../libDaisy/src/per/dac.h ****         BOTH,
  36:../libDaisy/src/per/dac.h ****     };
  37:../libDaisy/src/per/dac.h **** 
  38:../libDaisy/src/per/dac.h ****     /** Sets the Mode for the DAC channels.
  39:../libDaisy/src/per/dac.h ****      **
  40:../libDaisy/src/per/dac.h ****      ** Polling mode uses the blocking mode to transmit a single value at a time.
  41:../libDaisy/src/per/dac.h ****      **
  42:../libDaisy/src/per/dac.h ****      ** DMA mode uses a buffer, and periodically transmits it triggering a 
  43:../libDaisy/src/per/dac.h ****      ** callback to fill the buffer when it is ready for more samples.
  44:../libDaisy/src/per/dac.h ****      ***/
  45:../libDaisy/src/per/dac.h ****     enum class Mode
  46:../libDaisy/src/per/dac.h ****     {
  47:../libDaisy/src/per/dac.h ****         POLLING,
  48:../libDaisy/src/per/dac.h ****         DMA,
  49:../libDaisy/src/per/dac.h ****     };
  50:../libDaisy/src/per/dac.h **** 
  51:../libDaisy/src/per/dac.h ****     /** Sets the number of bits per sample transmitted out of the DAC.
  52:../libDaisy/src/per/dac.h ****      ** The output range will be: 0V - VDDA
  53:../libDaisy/src/per/dac.h ****      ** The resolution will be roughly: bitdepth / (VDDA - 0V) 
  54:../libDaisy/src/per/dac.h ****      ***/
  55:../libDaisy/src/per/dac.h ****     enum class BitDepth
  56:../libDaisy/src/per/dac.h ****     {
  57:../libDaisy/src/per/dac.h ****         BITS_8,
  58:../libDaisy/src/per/dac.h ****         BITS_12
  59:../libDaisy/src/per/dac.h ****     };
  60:../libDaisy/src/per/dac.h **** 
  61:../libDaisy/src/per/dac.h ****     /** Sets whether the DAC output is buffered for higher drive ability. */
  62:../libDaisy/src/per/dac.h ****     enum class BufferState
  63:../libDaisy/src/per/dac.h ****     {
  64:../libDaisy/src/per/dac.h ****         ENABLED,
  65:../libDaisy/src/per/dac.h ****         DISABLED,
  66:../libDaisy/src/per/dac.h ****     };
  67:../libDaisy/src/per/dac.h **** 
  68:../libDaisy/src/per/dac.h ****     /** Configuration structure for initializing the DAC structure. */
  69:../libDaisy/src/per/dac.h ****     struct Config
  70:../libDaisy/src/per/dac.h ****     {
  71:../libDaisy/src/per/dac.h ****         /** Target Samplerate in Hz used to configure the internal 
  72:../libDaisy/src/per/dac.h ****          ** timebase for DMA mode. Does nothing in POLLING mode.
  73:../libDaisy/src/per/dac.h ****          ** If the value is 0 at Init time this will default to 48000Hz 
  74:../libDaisy/src/per/dac.h ****          ** otherwise the driver will attempt meet the target.*/
  75:../libDaisy/src/per/dac.h ****         uint32_t target_samplerate;
  76:../libDaisy/src/per/dac.h **** 
  77:../libDaisy/src/per/dac.h ****         Channel     chn;
  78:../libDaisy/src/per/dac.h ****         Mode        mode;
  79:../libDaisy/src/per/dac.h ****         BitDepth    bitdepth;
  80:../libDaisy/src/per/dac.h ****         BufferState buff_state;
  81:../libDaisy/src/per/dac.h ****     };
ARM GAS  /var/folders/qg/q4v9m50j32g19d5z_5604vrc0000gp/T//ccUPYPJZ.s 			page 37


  82:../libDaisy/src/per/dac.h **** 
  83:../libDaisy/src/per/dac.h ****     DacHandle() : pimpl_(nullptr) {}
 1152              		.loc 11 83 5 is_stmt 1 view .LVU250
 1153              	.LBB170:
 1154              	.LBB171:
 1155              		.loc 11 83 33 is_stmt 0 view .LVU251
 1156 0018 0562     		str	r5, [r0, #32]
 1157              	.LVL91:
 1158              		.loc 11 83 33 view .LVU252
 1159              	.LBE171:
 1160              	.LBE170:
 1161              	.LBE169:
 1162              	.LBB172:
 1163              	.LBI172:
  40:../libDaisy/src/hid/usb.h **** 
 1164              		.loc 4 40 5 is_stmt 1 view .LVU253
  40:../libDaisy/src/hid/usb.h **** 
 1165              		.loc 4 40 5 is_stmt 0 view .LVU254
 1166              	.LBE172:
 1167              	.LBB173:
 1168              	.LBI173:
  58:../libDaisy/src/sys/system.h ****     ~System() {}
 1169              		.loc 3 58 5 is_stmt 1 view .LVU255
  58:../libDaisy/src/sys/system.h ****     ~System() {}
 1170              		.loc 3 58 5 is_stmt 0 view .LVU256
 1171              	.LBE173:
 1172              	.LBE175:
 1173              	.LBE177:
  20:birds-and-the-bees.cpp **** static VariableShapeOscillator osc[NUM_OF_OSCILLATORS];
 1174              		.loc 10 20 18 view .LVU257
 1175 001a FFF7FEFF 		bl	__aeabi_atexit
 1176              	.LVL92:
  21:birds-and-the-bees.cpp **** // static Oscillator osc[NUM_OF_OSCILLATORS];
 1177              		.loc 10 21 54 is_stmt 1 view .LVU258
  21:birds-and-the-bees.cpp **** // static Oscillator osc[NUM_OF_OSCILLATORS];
 1178              		.loc 10 21 32 is_stmt 0 view .LVU259
 1179 001e 2246     		mov	r2, r4
 1180 0020 1949     		ldr	r1, .L50+16
 1181 0022 2846     		mov	r0, r5
 1182 0024 FFF7FEFF 		bl	__aeabi_atexit
 1183              	.LVL93:
 1184              	.LBB178:
 1185              	.LBI178:
  20:../DaisySP/Source/Filters/moogladder.h ****     ~MoogLadder() {}
 1186              		.loc 8 20 5 is_stmt 1 view .LVU260
  20:../DaisySP/Source/Filters/moogladder.h ****     ~MoogLadder() {}
 1187              		.loc 8 20 5 is_stmt 0 view .LVU261
 1188              	.LBE178:
  23:birds-and-the-bees.cpp **** static MoogLadder filterRight;
 1189              		.loc 10 23 19 view .LVU262
 1190 0028 2246     		mov	r2, r4
 1191 002a 1849     		ldr	r1, .L50+20
 1192 002c 1848     		ldr	r0, .L50+24
 1193 002e FFF7FEFF 		bl	__aeabi_atexit
 1194              	.LVL94:
 1195              	.LBB179:
 1196              	.LBI179:
ARM GAS  /var/folders/qg/q4v9m50j32g19d5z_5604vrc0000gp/T//ccUPYPJZ.s 			page 38


  20:../DaisySP/Source/Filters/moogladder.h ****     ~MoogLadder() {}
 1197              		.loc 8 20 5 is_stmt 1 view .LVU263
  20:../DaisySP/Source/Filters/moogladder.h ****     ~MoogLadder() {}
 1198              		.loc 8 20 5 is_stmt 0 view .LVU264
 1199              	.LBE179:
  24:birds-and-the-bees.cpp **** static Adsr envelope;
 1200              		.loc 10 24 19 view .LVU265
 1201 0032 2246     		mov	r2, r4
 1202 0034 1549     		ldr	r1, .L50+20
 1203 0036 1748     		ldr	r0, .L50+28
 1204 0038 FFF7FEFF 		bl	__aeabi_atexit
 1205              	.LVL95:
 1206              	.LBB180:
 1207              	.LBI180:
  36:../DaisySP/Source/Control/adsr.h ****     ~Adsr() {}
 1208              		.loc 7 36 5 is_stmt 1 view .LVU266
 1209              	.LBB181:
 1210              	.LBB182:
  36:../DaisySP/Source/Control/adsr.h ****     ~Adsr() {}
 1211              		.loc 7 36 12 is_stmt 0 view .LVU267
 1212 003c 1648     		ldr	r0, .L50+32
 1213 003e 0023     		movs	r3, #0
 1214 0040 1649     		ldr	r1, .L50+36
 1215              	.LBE182:
 1216              	.LBE181:
 1217              	.LBE180:
  25:birds-and-the-bees.cpp **** static Port port;
 1218              		.loc 10 25 13 view .LVU268
 1219 0042 2246     		mov	r2, r4
 1220              	.LBB185:
 1221              	.LBB184:
  36:../DaisySP/Source/Control/adsr.h ****     ~Adsr() {}
 1222              		.loc 7 36 12 view .LVU269
 1223 0044 8585     		strh	r5, [r0, #44]	@ movhi
 1224              	.LVL96:
 1225              	.LBB183:
  36:../DaisySP/Source/Control/adsr.h ****     ~Adsr() {}
 1226              		.loc 7 36 12 view .LVU270
 1227 0046 0360     		str	r3, [r0]	@ float
 1228 0048 4360     		str	r3, [r0, #4]	@ float
 1229 004a C360     		str	r3, [r0, #12]	@ float
 1230 004c C361     		str	r3, [r0, #28]	@ float
 1231 004e 0362     		str	r3, [r0, #32]	@ float
 1232 0050 4362     		str	r3, [r0, #36]	@ float
 1233 0052 8160     		str	r1, [r0, #8]	@ float
 1234 0054 0161     		str	r1, [r0, #16]	@ float
 1235 0056 4161     		str	r1, [r0, #20]	@ float
 1236 0058 8161     		str	r1, [r0, #24]	@ float
 1237              	.LBE183:
 1238              	.LBE184:
 1239              	.LBE185:
  25:birds-and-the-bees.cpp **** static Port port;
 1240              		.loc 10 25 13 view .LVU271
 1241 005a 1149     		ldr	r1, .L50+40
 1242 005c FFF7FEFF 		bl	__aeabi_atexit
 1243              	.LVL97:
 1244              	.LBB186:
ARM GAS  /var/folders/qg/q4v9m50j32g19d5z_5604vrc0000gp/T//ccUPYPJZ.s 			page 39


 1245              	.LBI186:
  29:../DaisySP/Source/Utility/port.h ****     ~Port() {}
 1246              		.loc 9 29 5 is_stmt 1 view .LVU272
  29:../DaisySP/Source/Utility/port.h ****     ~Port() {}
 1247              		.loc 9 29 5 is_stmt 0 view .LVU273
 1248              	.LBE186:
  26:birds-and-the-bees.cpp **** 
 1249              		.loc 10 26 13 view .LVU274
 1250 0060 2246     		mov	r2, r4
 1251 0062 1049     		ldr	r1, .L50+44
 1252 0064 1048     		ldr	r0, .L50+48
 1253 0066 FFF7FEFF 		bl	__aeabi_atexit
 1254              	.LVL98:
 1255              	.LBB187:
 1256              	.LBI187:
  40:../libDaisy/src/hid/switch.h ****     ~Switch() {}
 1257              		.loc 1 40 5 is_stmt 1 view .LVU275
  40:../libDaisy/src/hid/switch.h ****     ~Switch() {}
 1258              		.loc 1 40 5 is_stmt 0 view .LVU276
 1259              	.LBE187:
  49:birds-and-the-bees.cpp **** 
 1260              		.loc 10 49 8 view .LVU277
 1261 006a 2246     		mov	r2, r4
 1262 006c 0F49     		ldr	r1, .L50+52
 1263 006e 1048     		ldr	r0, .L50+56
 1264              	.LBE188:
 1265              	.LBE190:
 1266              		.loc 10 196 1 view .LVU278
 1267 0070 BDE83840 		pop	{r3, r4, r5, lr}
 1268              		.cfi_restore 14
 1269              		.cfi_restore 5
 1270              		.cfi_restore 4
 1271              		.cfi_restore 3
 1272              		.cfi_def_cfa_offset 0
 1273              	.LBB191:
 1274              	.LBB189:
  49:birds-and-the-bees.cpp **** 
 1275              		.loc 10 49 8 view .LVU279
 1276 0074 FFF7FEBF 		b	__aeabi_atexit
 1277              	.LVL99:
 1278              	.L51:
 1279              		.align	2
 1280              	.L50:
 1281 0078 00000000 		.word	__dso_handle
 1282 007c 00000000 		.word	__tcf_0
 1283 0080 00000000 		.word	.LANCHOR0
 1284 0084 00000000 		.word	_ZN5daisy9DaisySeedD1Ev
 1285 0088 00000000 		.word	__tcf_1
 1286 008c 00000000 		.word	_ZN7daisysp10MoogLadderD1Ev
 1287 0090 00000000 		.word	.LANCHOR16
 1288 0094 00000000 		.word	.LANCHOR17
 1289 0098 00000000 		.word	.LANCHOR8
 1290 009c 000080BF 		.word	-1082130432
 1291 00a0 00000000 		.word	_ZN7daisysp4AdsrD1Ev
 1292 00a4 00000000 		.word	_ZN7daisysp4PortD1Ev
 1293 00a8 00000000 		.word	.LANCHOR5
 1294 00ac 00000000 		.word	_ZN5daisy6SwitchD1Ev
ARM GAS  /var/folders/qg/q4v9m50j32g19d5z_5604vrc0000gp/T//ccUPYPJZ.s 			page 40


 1295 00b0 00000000 		.word	.LANCHOR2
 1296              	.LBE189:
 1297              	.LBE191:
 1298              		.cfi_endproc
 1299              	.LFE4804:
 1301              		.section	.init_array,"aw",%init_array
 1302              		.align	2
 1303 0000 00000000 		.word	_GLOBAL__sub_I_notes(target1)
 1304              		.global	button1
 1305              		.global	knob
 1306              		.global	cutoffRibbon
 1307              		.global	pitchRibbon
 1308              		.global	stereoSpread
 1309              		.global	octave
 1310              		.global	releaseMs
 1311              		.global	sustain
 1312              		.global	decayMs
 1313              		.global	attackMs
 1314              		.global	tune
 1315              		.global	overdrive
 1316              		.global	enveloptToCutoff
 1317              		.global	filterSwarmSpread
 1318              		.global	resonance
 1319              		.global	cutoffHz
 1320              		.global	swarmParcialRange
 1321              		.global	swarmPreset
 1322              		.global	portamento
 1323              		.global	outputVolume
 1324              		.global	knob_
 1325              		.global	PIN_ADC_POT_MUX2
 1326              		.global	PIN_ADC_POT_MUX1
 1327              		.global	PIN_MUX_SEL_2
 1328              		.global	PIN_MUX_SEL_1
 1329              		.global	PIN_MUX_SEL_0
 1330              		.global	notesIndex
 1331              		.global	notes
 1332              		.section	.bss._ZL10filterLeft,"aw",%nobits
 1333              		.align	2
 1334              		.set	.LANCHOR16,. + 0
 1337              	_ZL10filterLeft:
 1338 0000 00000000 		.space	68
 1338      00000000 
 1338      00000000 
 1338      00000000 
 1338      00000000 
 1339              		.section	.bss._ZL11filterRight,"aw",%nobits
 1340              		.align	2
 1341              		.set	.LANCHOR17,. + 0
 1344              	_ZL11filterRight:
 1345 0000 00000000 		.space	68
 1345      00000000 
 1345      00000000 
 1345      00000000 
 1345      00000000 
 1346              		.section	.bss._ZL2hw,"aw",%nobits
 1347              		.align	2
 1348              		.set	.LANCHOR0,. + 0
ARM GAS  /var/folders/qg/q4v9m50j32g19d5z_5604vrc0000gp/T//ccUPYPJZ.s 			page 41


 1351              	_ZL2hw:
 1352 0000 00000000 		.space	60
 1352      00000000 
 1352      00000000 
 1352      00000000 
 1352      00000000 
 1353              		.section	.bss._ZL3osc,"aw",%nobits
 1354              		.align	2
 1355              		.set	.LANCHOR6,. + 0
 1358              	_ZL3osc:
 1359 0000 00000000 		.space	352
 1359      00000000 
 1359      00000000 
 1359      00000000 
 1359      00000000 
 1360              		.section	.bss._ZL4port,"aw",%nobits
 1361              		.align	2
 1362              		.set	.LANCHOR5,. + 0
 1365              	_ZL4port:
 1366 0000 00000000 		.space	28
 1366      00000000 
 1366      00000000 
 1366      00000000 
 1366      00000000 
 1367              		.section	.bss._ZL8envelope,"aw",%nobits
 1368              		.align	2
 1369              		.set	.LANCHOR8,. + 0
 1372              	_ZL8envelope:
 1373 0000 00000000 		.space	48
 1373      00000000 
 1373      00000000 
 1373      00000000 
 1373      00000000 
 1374              		.section	.bss.attackMs,"aw",%nobits
 1375              		.align	2
 1378              	attackMs:
 1379 0000 00000000 		.space	4
 1380              		.section	.bss.button1,"aw",%nobits
 1381              		.align	2
 1382              		.set	.LANCHOR2,. + 0
 1385              	button1:
 1386 0000 00000000 		.space	16
 1386      00000000 
 1386      00000000 
 1386      00000000 
 1387              		.section	.bss.cutoffRibbon,"aw",%nobits
 1388              		.align	2
 1391              	cutoffRibbon:
 1392 0000 00000000 		.space	4
 1393              		.section	.bss.decayMs,"aw",%nobits
 1394              		.align	2
 1397              	decayMs:
 1398 0000 00000000 		.space	4
 1399              		.section	.bss.enveloptToCutoff,"aw",%nobits
 1400              		.align	2
 1403              	enveloptToCutoff:
 1404 0000 00000000 		.space	4
ARM GAS  /var/folders/qg/q4v9m50j32g19d5z_5604vrc0000gp/T//ccUPYPJZ.s 			page 42


 1405              		.section	.bss.knob_,"aw",%nobits
 1406              		.align	2
 1407              		.set	.LANCHOR15,. + 0
 1410              	knob_:
 1411 0000 00000000 		.space	768
 1411      00000000 
 1411      00000000 
 1411      00000000 
 1411      00000000 
 1412              		.section	.bss.notesIndex,"aw",%nobits
 1413              		.align	2
 1414              		.set	.LANCHOR3,. + 0
 1417              	notesIndex:
 1418 0000 00000000 		.space	4
 1419              		.section	.bss.overdrive,"aw",%nobits
 1420              		.align	2
 1423              	overdrive:
 1424 0000 00000000 		.space	4
 1425              		.section	.bss.pitchRibbon,"aw",%nobits
 1426              		.align	2
 1429              	pitchRibbon:
 1430 0000 00000000 		.space	4
 1431              		.section	.bss.portamento,"aw",%nobits
 1432              		.align	2
 1435              	portamento:
 1436 0000 00000000 		.space	4
 1437              		.section	.bss.releaseMs,"aw",%nobits
 1438              		.align	2
 1441              	releaseMs:
 1442 0000 00000000 		.space	4
 1443              		.section	.bss.resonance,"aw",%nobits
 1444              		.align	2
 1447              	resonance:
 1448 0000 00000000 		.space	4
 1449              		.section	.bss.sustain,"aw",%nobits
 1450              		.align	2
 1453              	sustain:
 1454 0000 00000000 		.space	4
 1455              		.section	.bss.swarmParcialRange,"aw",%nobits
 1456              		.align	2
 1459              	swarmParcialRange:
 1460 0000 00000000 		.space	4
 1461              		.section	.bss.swarmPreset,"aw",%nobits
 1462              		.align	2
 1465              	swarmPreset:
 1466 0000 00000000 		.space	4
 1467              		.section	.bss.tune,"aw",%nobits
 1468              		.align	2
 1471              	tune:
 1472 0000 00000000 		.space	4
 1473              		.section	.data.PIN_ADC_POT_MUX1,"aw"
 1474              		.align	2
 1475              		.set	.LANCHOR10,. + 0
 1478              	PIN_ADC_POT_MUX1:
 1479 0000 0F000000 		.word	15
 1480              		.section	.data.PIN_ADC_POT_MUX2,"aw"
 1481              		.align	2
ARM GAS  /var/folders/qg/q4v9m50j32g19d5z_5604vrc0000gp/T//ccUPYPJZ.s 			page 43


 1482              		.set	.LANCHOR14,. + 0
 1485              	PIN_ADC_POT_MUX2:
 1486 0000 10000000 		.word	16
 1487              		.section	.data.PIN_MUX_SEL_0,"aw"
 1488              		.align	2
 1489              		.set	.LANCHOR11,. + 0
 1492              	PIN_MUX_SEL_0:
 1493 0000 11000000 		.word	17
 1494              		.section	.data.PIN_MUX_SEL_1,"aw"
 1495              		.align	2
 1496              		.set	.LANCHOR12,. + 0
 1499              	PIN_MUX_SEL_1:
 1500 0000 12000000 		.word	18
 1501              		.section	.data.PIN_MUX_SEL_2,"aw"
 1502              		.align	2
 1503              		.set	.LANCHOR13,. + 0
 1506              	PIN_MUX_SEL_2:
 1507 0000 13000000 		.word	19
 1508              		.section	.data.cutoffHz,"aw"
 1509              		.align	2
 1512              	cutoffHz:
 1513 0000 0000C842 		.word	1120403456
 1514              		.section	.data.filterSwarmSpread,"aw"
 1515              		.align	2
 1518              	filterSwarmSpread:
 1519 0000 0000003F 		.word	1056964608
 1520              		.section	.data.knob,"aw"
 1521              		.align	2
 1522              		.set	.LANCHOR1,. + 0
 1525              	knob:
 1526 0000 0000003F 		.word	1056964608
 1527              		.section	.data.notes,"aw"
 1528              		.align	2
 1529              		.set	.LANCHOR4,. + 0
 1532              	notes:
 1533 0000 00005C43 		.word	1130102784
 1534 0004 0000DC43 		.word	1138491392
 1535 0008 00005C43 		.word	1130102784
 1536 000c A4D0A443 		.word	1134874788
 1537 0010 A4D08243 		.word	1132646564
 1538 0014 7BD49243 		.word	1133696123
 1539 0018 A4D0A443 		.word	1134874788
 1540 001c 719DAE43 		.word	1135517041
 1541              		.section	.data.octave,"aw"
 1542              		.align	2
 1545              	octave:
 1546 0000 02000000 		.word	2
 1547              		.section	.data.outputVolume,"aw"
 1548              		.align	2
 1549              		.set	.LANCHOR9,. + 0
 1552              	outputVolume:
 1553 0000 0000403F 		.word	1061158912
 1554              		.section	.data.stereoSpread,"aw"
 1555              		.align	2
 1556              		.set	.LANCHOR7,. + 0
 1559              	stereoSpread:
 1560 0000 0000003F 		.word	1056964608
ARM GAS  /var/folders/qg/q4v9m50j32g19d5z_5604vrc0000gp/T//ccUPYPJZ.s 			page 44


 1561              		.text
 1562              	.Letext0:
 1563              		.file 12 "/usr/local/Caskroom/gcc-arm-embedded/10-2020-q4-major/gcc-arm-none-eabi-10-2020-q4-major
 1564              		.file 13 "/usr/local/Caskroom/gcc-arm-embedded/10-2020-q4-major/gcc-arm-none-eabi-10-2020-q4-major
 1565              		.file 14 "/usr/local/Caskroom/gcc-arm-embedded/10-2020-q4-major/gcc-arm-none-eabi-10-2020-q4-major
 1566              		.file 15 "/usr/local/Caskroom/gcc-arm-embedded/10-2020-q4-major/gcc-arm-none-eabi-10-2020-q4-major
 1567              		.file 16 "/usr/local/Caskroom/gcc-arm-embedded/10-2020-q4-major/gcc-arm-none-eabi-10-2020-q4-major
 1568              		.file 17 "/usr/local/Caskroom/gcc-arm-embedded/10-2020-q4-major/gcc-arm-none-eabi-10-2020-q4-major
 1569              		.file 18 "/usr/local/Caskroom/gcc-arm-embedded/10-2020-q4-major/gcc-arm-none-eabi-10-2020-q4-major
 1570              		.file 19 "/usr/local/Caskroom/gcc-arm-embedded/10-2020-q4-major/gcc-arm-none-eabi-10-2020-q4-major
 1571              		.file 20 "/usr/local/Caskroom/gcc-arm-embedded/10-2020-q4-major/gcc-arm-none-eabi-10-2020-q4-major
 1572              		.file 21 "/usr/local/Caskroom/gcc-arm-embedded/10-2020-q4-major/gcc-arm-none-eabi-10-2020-q4-major
 1573              		.file 22 "/usr/local/Caskroom/gcc-arm-embedded/10-2020-q4-major/gcc-arm-none-eabi-10-2020-q4-major
 1574              		.file 23 "/usr/local/Caskroom/gcc-arm-embedded/10-2020-q4-major/gcc-arm-none-eabi-10-2020-q4-major
 1575              		.file 24 "/usr/local/Caskroom/gcc-arm-embedded/10-2020-q4-major/gcc-arm-none-eabi-10-2020-q4-major
 1576              		.file 25 "/usr/local/Caskroom/gcc-arm-embedded/10-2020-q4-major/gcc-arm-none-eabi-10-2020-q4-major
 1577              		.file 26 "/usr/local/Caskroom/gcc-arm-embedded/10-2020-q4-major/gcc-arm-none-eabi-10-2020-q4-major
 1578              		.file 27 "/usr/local/Caskroom/gcc-arm-embedded/10-2020-q4-major/gcc-arm-none-eabi-10-2020-q4-major
 1579              		.file 28 "/usr/local/Caskroom/gcc-arm-embedded/10-2020-q4-major/gcc-arm-none-eabi-10-2020-q4-major
 1580              		.file 29 "/usr/local/Caskroom/gcc-arm-embedded/10-2020-q4-major/gcc-arm-none-eabi-10-2020-q4-major
 1581              		.file 30 "/usr/local/Caskroom/gcc-arm-embedded/10-2020-q4-major/gcc-arm-none-eabi-10-2020-q4-major
 1582              		.file 31 "/usr/local/Caskroom/gcc-arm-embedded/10-2020-q4-major/gcc-arm-none-eabi-10-2020-q4-major
 1583              		.file 32 "/usr/local/Caskroom/gcc-arm-embedded/10-2020-q4-major/gcc-arm-none-eabi-10-2020-q4-major
 1584              		.file 33 "/usr/local/Caskroom/gcc-arm-embedded/10-2020-q4-major/gcc-arm-none-eabi-10-2020-q4-major
 1585              		.file 34 "/usr/local/Caskroom/gcc-arm-embedded/10-2020-q4-major/gcc-arm-none-eabi-10-2020-q4-major
 1586              		.file 35 "/usr/local/Caskroom/gcc-arm-embedded/10-2020-q4-major/gcc-arm-none-eabi-10-2020-q4-major
 1587              		.file 36 "/usr/local/Caskroom/gcc-arm-embedded/10-2020-q4-major/gcc-arm-none-eabi-10-2020-q4-major
 1588              		.file 37 "/usr/local/Caskroom/gcc-arm-embedded/10-2020-q4-major/gcc-arm-none-eabi-10-2020-q4-major
 1589              		.file 38 "/usr/local/Caskroom/gcc-arm-embedded/10-2020-q4-major/gcc-arm-none-eabi-10-2020-q4-major
 1590              		.file 39 "/usr/local/Caskroom/gcc-arm-embedded/10-2020-q4-major/gcc-arm-none-eabi-10-2020-q4-major
 1591              		.file 40 "/usr/local/Caskroom/gcc-arm-embedded/10-2020-q4-major/gcc-arm-none-eabi-10-2020-q4-major
 1592              		.file 41 "../libDaisy/src/daisy_core.h"
 1593              		.file 42 "../libDaisy/src/per/tim.h"
 1594              		.file 43 "../libDaisy/src/per/sai.h"
 1595              		.file 44 "../libDaisy/src/hid/ctrl.h"
 1596              		.file 45 "../libDaisy/src/hid/logger_impl.h"
 1597              		.file 46 "../libDaisy/src/util/wav_format.h"
 1598              		.file 47 "../libDaisy/src/hid/logger.h"
 1599              		.file 48 "../libDaisy/src/per/qspi.h"
 1600              		.file 49 "../libDaisy/src/per/gpio.h"
 1601              		.file 50 "../libDaisy/src/dev/sdram.h"
 1602              		.file 51 "/usr/local/Caskroom/gcc-arm-embedded/10-2020-q4-major/gcc-arm-none-eabi-10-2020-q4-major
 1603              		.file 52 "/usr/local/Caskroom/gcc-arm-embedded/10-2020-q4-major/gcc-arm-none-eabi-10-2020-q4-major
 1604              		.file 53 "../DaisySP/Source/Control/adenv.h"
 1605              		.file 54 "../DaisySP/Source/Utility/dsp.h"
 1606              		.file 55 "../DaisySP/Source/Synthesis/variableshapeosc.h"
 1607              		.file 56 "/usr/local/Caskroom/gcc-arm-embedded/10-2020-q4-major/gcc-arm-none-eabi-10-2020-q4-major
 1608              		.file 57 "/usr/local/Caskroom/gcc-arm-embedded/10-2020-q4-major/gcc-arm-none-eabi-10-2020-q4-major
 1609              		.file 58 "/usr/local/Caskroom/gcc-arm-embedded/10-2020-q4-major/gcc-arm-none-eabi-10-2020-q4-major
 1610              		.file 59 "../libDaisy/src/dev/sr_595.h"
 1611              		.file 60 "<built-in>"
ARM GAS  /var/folders/qg/q4v9m50j32g19d5z_5604vrc0000gp/T//ccUPYPJZ.s 			page 45


DEFINED SYMBOLS
                            *ABS*:0000000000000000 birds-and-the-bees.cpp
/var/folders/qg/q4v9m50j32g19d5z_5604vrc0000gp/T//ccUPYPJZ.s:17     .text._ZN5daisy6SwitchD2Ev:0000000000000000 $t
/var/folders/qg/q4v9m50j32g19d5z_5604vrc0000gp/T//ccUPYPJZ.s:26     .text._ZN5daisy6SwitchD2Ev:0000000000000000 _ZN5daisy6SwitchD2Ev
/var/folders/qg/q4v9m50j32g19d5z_5604vrc0000gp/T//ccUPYPJZ.s:26     .text._ZN5daisy6SwitchD2Ev:0000000000000000 _ZN5daisy6SwitchD1Ev
/var/folders/qg/q4v9m50j32g19d5z_5604vrc0000gp/T//ccUPYPJZ.s:43     .text._ZN5daisy9DaisySeedD2Ev:0000000000000000 $t
/var/folders/qg/q4v9m50j32g19d5z_5604vrc0000gp/T//ccUPYPJZ.s:51     .text._ZN5daisy9DaisySeedD2Ev:0000000000000000 _ZN5daisy9DaisySeedD2Ev
/var/folders/qg/q4v9m50j32g19d5z_5604vrc0000gp/T//ccUPYPJZ.s:51     .text._ZN5daisy9DaisySeedD2Ev:0000000000000000 _ZN5daisy9DaisySeedD1Ev
/var/folders/qg/q4v9m50j32g19d5z_5604vrc0000gp/T//ccUPYPJZ.s:92     .text._ZN7daisysp4AdsrD2Ev:0000000000000000 $t
/var/folders/qg/q4v9m50j32g19d5z_5604vrc0000gp/T//ccUPYPJZ.s:100    .text._ZN7daisysp4AdsrD2Ev:0000000000000000 _ZN7daisysp4AdsrD2Ev
/var/folders/qg/q4v9m50j32g19d5z_5604vrc0000gp/T//ccUPYPJZ.s:100    .text._ZN7daisysp4AdsrD2Ev:0000000000000000 _ZN7daisysp4AdsrD1Ev
/var/folders/qg/q4v9m50j32g19d5z_5604vrc0000gp/T//ccUPYPJZ.s:117    .text._ZN7daisysp10MoogLadderD2Ev:0000000000000000 $t
/var/folders/qg/q4v9m50j32g19d5z_5604vrc0000gp/T//ccUPYPJZ.s:125    .text._ZN7daisysp10MoogLadderD2Ev:0000000000000000 _ZN7daisysp10MoogLadderD2Ev
/var/folders/qg/q4v9m50j32g19d5z_5604vrc0000gp/T//ccUPYPJZ.s:125    .text._ZN7daisysp10MoogLadderD2Ev:0000000000000000 _ZN7daisysp10MoogLadderD1Ev
/var/folders/qg/q4v9m50j32g19d5z_5604vrc0000gp/T//ccUPYPJZ.s:142    .text._ZN7daisysp4PortD2Ev:0000000000000000 $t
/var/folders/qg/q4v9m50j32g19d5z_5604vrc0000gp/T//ccUPYPJZ.s:150    .text._ZN7daisysp4PortD2Ev:0000000000000000 _ZN7daisysp4PortD2Ev
/var/folders/qg/q4v9m50j32g19d5z_5604vrc0000gp/T//ccUPYPJZ.s:150    .text._ZN7daisysp4PortD2Ev:0000000000000000 _ZN7daisysp4PortD1Ev
/var/folders/qg/q4v9m50j32g19d5z_5604vrc0000gp/T//ccUPYPJZ.s:167    .text.__tcf_0:0000000000000000 $t
/var/folders/qg/q4v9m50j32g19d5z_5604vrc0000gp/T//ccUPYPJZ.s:174    .text.__tcf_0:0000000000000000 __tcf_0
/var/folders/qg/q4v9m50j32g19d5z_5604vrc0000gp/T//ccUPYPJZ.s:188    .text._ZL13AudioCallbackPKfPfj:0000000000000000 $t
/var/folders/qg/q4v9m50j32g19d5z_5604vrc0000gp/T//ccUPYPJZ.s:195    .text._ZL13AudioCallbackPKfPfj:0000000000000000 _ZL13AudioCallbackPKfPfj
/var/folders/qg/q4v9m50j32g19d5z_5604vrc0000gp/T//ccUPYPJZ.s:533    .text._ZL13AudioCallbackPKfPfj:0000000000000148 $d
/var/folders/qg/q4v9m50j32g19d5z_5604vrc0000gp/T//ccUPYPJZ.s:549    .text.__tcf_1:0000000000000000 $t
/var/folders/qg/q4v9m50j32g19d5z_5604vrc0000gp/T//ccUPYPJZ.s:556    .text.__tcf_1:0000000000000000 __tcf_1
/var/folders/qg/q4v9m50j32g19d5z_5604vrc0000gp/T//ccUPYPJZ.s:567    .text._Z8SetupOscf:0000000000000000 $t
/var/folders/qg/q4v9m50j32g19d5z_5604vrc0000gp/T//ccUPYPJZ.s:575    .text._Z8SetupOscf:0000000000000000 _Z8SetupOscf
/var/folders/qg/q4v9m50j32g19d5z_5604vrc0000gp/T//ccUPYPJZ.s:647    .text._Z8SetupOscf:0000000000000044 $d
/var/folders/qg/q4v9m50j32g19d5z_5604vrc0000gp/T//ccUPYPJZ.s:653    .text._Z11setupMuxAdcv:0000000000000000 $t
/var/folders/qg/q4v9m50j32g19d5z_5604vrc0000gp/T//ccUPYPJZ.s:661    .text._Z11setupMuxAdcv:0000000000000000 _Z11setupMuxAdcv
/var/folders/qg/q4v9m50j32g19d5z_5604vrc0000gp/T//ccUPYPJZ.s:840    .text._Z11setupMuxAdcv:0000000000000108 $d
/var/folders/qg/q4v9m50j32g19d5z_5604vrc0000gp/T//ccUPYPJZ.s:853    .text._Z14setupNormalAdcv:0000000000000000 $t
/var/folders/qg/q4v9m50j32g19d5z_5604vrc0000gp/T//ccUPYPJZ.s:861    .text._Z14setupNormalAdcv:0000000000000000 _Z14setupNormalAdcv
/var/folders/qg/q4v9m50j32g19d5z_5604vrc0000gp/T//ccUPYPJZ.s:912    .text._Z14setupNormalAdcv:0000000000000034 $d
/var/folders/qg/q4v9m50j32g19d5z_5604vrc0000gp/T//ccUPYPJZ.s:917    .text.startup.main:0000000000000000 $t
/var/folders/qg/q4v9m50j32g19d5z_5604vrc0000gp/T//ccUPYPJZ.s:925    .text.startup.main:0000000000000000 main
/var/folders/qg/q4v9m50j32g19d5z_5604vrc0000gp/T//ccUPYPJZ.s:1049   .text.startup.main:00000000000000a0 $d
/var/folders/qg/q4v9m50j32g19d5z_5604vrc0000gp/T//ccUPYPJZ.s:1063   .text.startup._GLOBAL__sub_I_notes:0000000000000000 $t
/var/folders/qg/q4v9m50j32g19d5z_5604vrc0000gp/T//ccUPYPJZ.s:1070   .text.startup._GLOBAL__sub_I_notes:0000000000000000 _GLOBAL__sub_I_notes
/var/folders/qg/q4v9m50j32g19d5z_5604vrc0000gp/T//ccUPYPJZ.s:1281   .text.startup._GLOBAL__sub_I_notes:0000000000000078 $d
/var/folders/qg/q4v9m50j32g19d5z_5604vrc0000gp/T//ccUPYPJZ.s:1302   .init_array:0000000000000000 $d
/var/folders/qg/q4v9m50j32g19d5z_5604vrc0000gp/T//ccUPYPJZ.s:1385   .bss.button1:0000000000000000 button1
/var/folders/qg/q4v9m50j32g19d5z_5604vrc0000gp/T//ccUPYPJZ.s:1525   .data.knob:0000000000000000 knob
/var/folders/qg/q4v9m50j32g19d5z_5604vrc0000gp/T//ccUPYPJZ.s:1391   .bss.cutoffRibbon:0000000000000000 cutoffRibbon
/var/folders/qg/q4v9m50j32g19d5z_5604vrc0000gp/T//ccUPYPJZ.s:1429   .bss.pitchRibbon:0000000000000000 pitchRibbon
/var/folders/qg/q4v9m50j32g19d5z_5604vrc0000gp/T//ccUPYPJZ.s:1559   .data.stereoSpread:0000000000000000 stereoSpread
/var/folders/qg/q4v9m50j32g19d5z_5604vrc0000gp/T//ccUPYPJZ.s:1545   .data.octave:0000000000000000 octave
/var/folders/qg/q4v9m50j32g19d5z_5604vrc0000gp/T//ccUPYPJZ.s:1441   .bss.releaseMs:0000000000000000 releaseMs
/var/folders/qg/q4v9m50j32g19d5z_5604vrc0000gp/T//ccUPYPJZ.s:1453   .bss.sustain:0000000000000000 sustain
/var/folders/qg/q4v9m50j32g19d5z_5604vrc0000gp/T//ccUPYPJZ.s:1397   .bss.decayMs:0000000000000000 decayMs
/var/folders/qg/q4v9m50j32g19d5z_5604vrc0000gp/T//ccUPYPJZ.s:1378   .bss.attackMs:0000000000000000 attackMs
/var/folders/qg/q4v9m50j32g19d5z_5604vrc0000gp/T//ccUPYPJZ.s:1471   .bss.tune:0000000000000000 tune
/var/folders/qg/q4v9m50j32g19d5z_5604vrc0000gp/T//ccUPYPJZ.s:1423   .bss.overdrive:0000000000000000 overdrive
/var/folders/qg/q4v9m50j32g19d5z_5604vrc0000gp/T//ccUPYPJZ.s:1403   .bss.enveloptToCutoff:0000000000000000 enveloptToCutoff
/var/folders/qg/q4v9m50j32g19d5z_5604vrc0000gp/T//ccUPYPJZ.s:1518   .data.filterSwarmSpread:0000000000000000 filterSwarmSpread
/var/folders/qg/q4v9m50j32g19d5z_5604vrc0000gp/T//ccUPYPJZ.s:1447   .bss.resonance:0000000000000000 resonance
/var/folders/qg/q4v9m50j32g19d5z_5604vrc0000gp/T//ccUPYPJZ.s:1512   .data.cutoffHz:0000000000000000 cutoffHz
/var/folders/qg/q4v9m50j32g19d5z_5604vrc0000gp/T//ccUPYPJZ.s:1459   .bss.swarmParcialRange:0000000000000000 swarmParcialRange
ARM GAS  /var/folders/qg/q4v9m50j32g19d5z_5604vrc0000gp/T//ccUPYPJZ.s 			page 46


/var/folders/qg/q4v9m50j32g19d5z_5604vrc0000gp/T//ccUPYPJZ.s:1465   .bss.swarmPreset:0000000000000000 swarmPreset
/var/folders/qg/q4v9m50j32g19d5z_5604vrc0000gp/T//ccUPYPJZ.s:1435   .bss.portamento:0000000000000000 portamento
/var/folders/qg/q4v9m50j32g19d5z_5604vrc0000gp/T//ccUPYPJZ.s:1552   .data.outputVolume:0000000000000000 outputVolume
/var/folders/qg/q4v9m50j32g19d5z_5604vrc0000gp/T//ccUPYPJZ.s:1410   .bss.knob_:0000000000000000 knob_
/var/folders/qg/q4v9m50j32g19d5z_5604vrc0000gp/T//ccUPYPJZ.s:1485   .data.PIN_ADC_POT_MUX2:0000000000000000 PIN_ADC_POT_MUX2
/var/folders/qg/q4v9m50j32g19d5z_5604vrc0000gp/T//ccUPYPJZ.s:1478   .data.PIN_ADC_POT_MUX1:0000000000000000 PIN_ADC_POT_MUX1
/var/folders/qg/q4v9m50j32g19d5z_5604vrc0000gp/T//ccUPYPJZ.s:1506   .data.PIN_MUX_SEL_2:0000000000000000 PIN_MUX_SEL_2
/var/folders/qg/q4v9m50j32g19d5z_5604vrc0000gp/T//ccUPYPJZ.s:1499   .data.PIN_MUX_SEL_1:0000000000000000 PIN_MUX_SEL_1
/var/folders/qg/q4v9m50j32g19d5z_5604vrc0000gp/T//ccUPYPJZ.s:1492   .data.PIN_MUX_SEL_0:0000000000000000 PIN_MUX_SEL_0
/var/folders/qg/q4v9m50j32g19d5z_5604vrc0000gp/T//ccUPYPJZ.s:1417   .bss.notesIndex:0000000000000000 notesIndex
/var/folders/qg/q4v9m50j32g19d5z_5604vrc0000gp/T//ccUPYPJZ.s:1532   .data.notes:0000000000000000 notes
/var/folders/qg/q4v9m50j32g19d5z_5604vrc0000gp/T//ccUPYPJZ.s:1333   .bss._ZL10filterLeft:0000000000000000 $d
/var/folders/qg/q4v9m50j32g19d5z_5604vrc0000gp/T//ccUPYPJZ.s:1337   .bss._ZL10filterLeft:0000000000000000 _ZL10filterLeft
/var/folders/qg/q4v9m50j32g19d5z_5604vrc0000gp/T//ccUPYPJZ.s:1340   .bss._ZL11filterRight:0000000000000000 $d
/var/folders/qg/q4v9m50j32g19d5z_5604vrc0000gp/T//ccUPYPJZ.s:1344   .bss._ZL11filterRight:0000000000000000 _ZL11filterRight
/var/folders/qg/q4v9m50j32g19d5z_5604vrc0000gp/T//ccUPYPJZ.s:1347   .bss._ZL2hw:0000000000000000 $d
/var/folders/qg/q4v9m50j32g19d5z_5604vrc0000gp/T//ccUPYPJZ.s:1351   .bss._ZL2hw:0000000000000000 _ZL2hw
/var/folders/qg/q4v9m50j32g19d5z_5604vrc0000gp/T//ccUPYPJZ.s:1354   .bss._ZL3osc:0000000000000000 $d
/var/folders/qg/q4v9m50j32g19d5z_5604vrc0000gp/T//ccUPYPJZ.s:1358   .bss._ZL3osc:0000000000000000 _ZL3osc
/var/folders/qg/q4v9m50j32g19d5z_5604vrc0000gp/T//ccUPYPJZ.s:1361   .bss._ZL4port:0000000000000000 $d
/var/folders/qg/q4v9m50j32g19d5z_5604vrc0000gp/T//ccUPYPJZ.s:1365   .bss._ZL4port:0000000000000000 _ZL4port
/var/folders/qg/q4v9m50j32g19d5z_5604vrc0000gp/T//ccUPYPJZ.s:1368   .bss._ZL8envelope:0000000000000000 $d
/var/folders/qg/q4v9m50j32g19d5z_5604vrc0000gp/T//ccUPYPJZ.s:1372   .bss._ZL8envelope:0000000000000000 _ZL8envelope
/var/folders/qg/q4v9m50j32g19d5z_5604vrc0000gp/T//ccUPYPJZ.s:1375   .bss.attackMs:0000000000000000 $d
/var/folders/qg/q4v9m50j32g19d5z_5604vrc0000gp/T//ccUPYPJZ.s:1381   .bss.button1:0000000000000000 $d
/var/folders/qg/q4v9m50j32g19d5z_5604vrc0000gp/T//ccUPYPJZ.s:1388   .bss.cutoffRibbon:0000000000000000 $d
/var/folders/qg/q4v9m50j32g19d5z_5604vrc0000gp/T//ccUPYPJZ.s:1394   .bss.decayMs:0000000000000000 $d
/var/folders/qg/q4v9m50j32g19d5z_5604vrc0000gp/T//ccUPYPJZ.s:1400   .bss.enveloptToCutoff:0000000000000000 $d
/var/folders/qg/q4v9m50j32g19d5z_5604vrc0000gp/T//ccUPYPJZ.s:1406   .bss.knob_:0000000000000000 $d
/var/folders/qg/q4v9m50j32g19d5z_5604vrc0000gp/T//ccUPYPJZ.s:1413   .bss.notesIndex:0000000000000000 $d
/var/folders/qg/q4v9m50j32g19d5z_5604vrc0000gp/T//ccUPYPJZ.s:1420   .bss.overdrive:0000000000000000 $d
/var/folders/qg/q4v9m50j32g19d5z_5604vrc0000gp/T//ccUPYPJZ.s:1426   .bss.pitchRibbon:0000000000000000 $d
/var/folders/qg/q4v9m50j32g19d5z_5604vrc0000gp/T//ccUPYPJZ.s:1432   .bss.portamento:0000000000000000 $d
/var/folders/qg/q4v9m50j32g19d5z_5604vrc0000gp/T//ccUPYPJZ.s:1438   .bss.releaseMs:0000000000000000 $d
/var/folders/qg/q4v9m50j32g19d5z_5604vrc0000gp/T//ccUPYPJZ.s:1444   .bss.resonance:0000000000000000 $d
/var/folders/qg/q4v9m50j32g19d5z_5604vrc0000gp/T//ccUPYPJZ.s:1450   .bss.sustain:0000000000000000 $d
/var/folders/qg/q4v9m50j32g19d5z_5604vrc0000gp/T//ccUPYPJZ.s:1456   .bss.swarmParcialRange:0000000000000000 $d
/var/folders/qg/q4v9m50j32g19d5z_5604vrc0000gp/T//ccUPYPJZ.s:1462   .bss.swarmPreset:0000000000000000 $d
/var/folders/qg/q4v9m50j32g19d5z_5604vrc0000gp/T//ccUPYPJZ.s:1468   .bss.tune:0000000000000000 $d
/var/folders/qg/q4v9m50j32g19d5z_5604vrc0000gp/T//ccUPYPJZ.s:1474   .data.PIN_ADC_POT_MUX1:0000000000000000 $d
/var/folders/qg/q4v9m50j32g19d5z_5604vrc0000gp/T//ccUPYPJZ.s:1481   .data.PIN_ADC_POT_MUX2:0000000000000000 $d
/var/folders/qg/q4v9m50j32g19d5z_5604vrc0000gp/T//ccUPYPJZ.s:1488   .data.PIN_MUX_SEL_0:0000000000000000 $d
/var/folders/qg/q4v9m50j32g19d5z_5604vrc0000gp/T//ccUPYPJZ.s:1495   .data.PIN_MUX_SEL_1:0000000000000000 $d
/var/folders/qg/q4v9m50j32g19d5z_5604vrc0000gp/T//ccUPYPJZ.s:1502   .data.PIN_MUX_SEL_2:0000000000000000 $d
/var/folders/qg/q4v9m50j32g19d5z_5604vrc0000gp/T//ccUPYPJZ.s:1509   .data.cutoffHz:0000000000000000 $d
/var/folders/qg/q4v9m50j32g19d5z_5604vrc0000gp/T//ccUPYPJZ.s:1515   .data.filterSwarmSpread:0000000000000000 $d
/var/folders/qg/q4v9m50j32g19d5z_5604vrc0000gp/T//ccUPYPJZ.s:1521   .data.knob:0000000000000000 $d
/var/folders/qg/q4v9m50j32g19d5z_5604vrc0000gp/T//ccUPYPJZ.s:1528   .data.notes:0000000000000000 $d
/var/folders/qg/q4v9m50j32g19d5z_5604vrc0000gp/T//ccUPYPJZ.s:1542   .data.octave:0000000000000000 $d
/var/folders/qg/q4v9m50j32g19d5z_5604vrc0000gp/T//ccUPYPJZ.s:1548   .data.outputVolume:0000000000000000 $d
/var/folders/qg/q4v9m50j32g19d5z_5604vrc0000gp/T//ccUPYPJZ.s:1555   .data.stereoSpread:0000000000000000 $d
                           .group:0000000000000000 _ZN5daisy6SwitchD5Ev
                           .group:0000000000000000 _ZN5daisy9DaisySeedD5Ev
                           .group:0000000000000000 _ZN7daisysp4AdsrD5Ev
                           .group:0000000000000000 _ZN7daisysp10MoogLadderD5Ev
                           .group:0000000000000000 _ZN7daisysp4PortD5Ev

ARM GAS  /var/folders/qg/q4v9m50j32g19d5z_5604vrc0000gp/T//ccUPYPJZ.s 			page 47


UNDEFINED SYMBOLS
_ZNK5daisy9AdcHandle8GetFloatEh
_ZN5daisy6Switch8DebounceEv
_ZN7daisysp4Port7ProcessEf
_ZN7daisysp23VariableShapeOscillator7SetFreqEf
_ZN7daisysp23VariableShapeOscillator11SetSyncFreqEf
_ZN7daisysp23VariableShapeOscillator12SetWaveshapeEf
_ZN7daisysp23VariableShapeOscillator7ProcessEv
_ZN7daisysp4Adsr7ProcessEb
_ZN7daisysp23VariableShapeOscillator4InitEf
_ZN7daisysp23VariableShapeOscillator5SetPWEf
_ZN7daisysp23VariableShapeOscillator7SetSyncEb
_ZN5daisy9DaisySeed6GetPinEh
_ZN5daisy16AdcChannelConfig7InitMuxE12dsy_gpio_pinjS1_S1_S1_
_ZN5daisy9AdcHandle4InitEPNS_16AdcChannelConfigEjNS0_12OverSamplingE
_ZN5daisy9AdcHandle5StartEv
_ZN5daisy6LoggerILNS_17LoggerDestinationE1EE8StartLogEb
_ZNK5daisy9AdcHandle9GetMuxPtrEhh
_ZNK5daisy9DaisySeed17AudioCallbackRateEv
_ZN5daisy13AnalogControl4InitEPtfbbf
_ZN5daisy16AdcChannelConfig10InitSingleE12dsy_gpio_pin
_ZN5daisy9DaisySeed9ConfigureEv
_ZN5daisy9DaisySeed4InitEb
_ZN5daisy9DaisySeed17SetAudioBlockSizeEj
_ZN5daisy9DaisySeed15AudioSampleRateEv
_ZN5daisy6Switch4InitE12dsy_gpio_pinf
_ZN7daisysp4Adsr4InitEfi
_ZN7daisysp4Adsr13SetAttackTimeEff
_ZN7daisysp4Adsr14SetReleaseTimeEf
_ZN7daisysp4Port4InitEff
_ZN5daisy9DaisySeed10StartAudioEPFvPKfPfjE
_ZN5daisy9DaisySeed7DelayMsEj
__aeabi_atexit
__dso_handle
